
ctarget:     file format elf64-x86-64


Disassembly of section .init:

0000000000000d60 <_init>:
 d60:	48 83 ec 08          	sub    $0x8,%rsp
 d64:	48 8b 05 75 32 20 00 	mov    0x203275(%rip),%rax        # 203fe0 <__gmon_start__>
 d6b:	48 85 c0             	test   %rax,%rax
 d6e:	74 02                	je     d72 <_init+0x12>
 d70:	ff d0                	callq  *%rax
 d72:	48 83 c4 08          	add    $0x8,%rsp
 d76:	c3                   	retq   

Disassembly of section .plt:

0000000000000d80 <.plt>:
 d80:	ff 35 82 32 20 00    	pushq  0x203282(%rip)        # 204008 <_GLOBAL_OFFSET_TABLE_+0x8>
 d86:	ff 25 84 32 20 00    	jmpq   *0x203284(%rip)        # 204010 <_GLOBAL_OFFSET_TABLE_+0x10>
 d8c:	0f 1f 40 00          	nopl   0x0(%rax)

0000000000000d90 <strcasecmp@plt>:
 d90:	ff 25 82 32 20 00    	jmpq   *0x203282(%rip)        # 204018 <strcasecmp@GLIBC_2.2.5>
 d96:	68 00 00 00 00       	pushq  $0x0
 d9b:	e9 e0 ff ff ff       	jmpq   d80 <.plt>

0000000000000da0 <__errno_location@plt>:
 da0:	ff 25 7a 32 20 00    	jmpq   *0x20327a(%rip)        # 204020 <__errno_location@GLIBC_2.2.5>
 da6:	68 01 00 00 00       	pushq  $0x1
 dab:	e9 d0 ff ff ff       	jmpq   d80 <.plt>

0000000000000db0 <srandom@plt>:
 db0:	ff 25 72 32 20 00    	jmpq   *0x203272(%rip)        # 204028 <srandom@GLIBC_2.2.5>
 db6:	68 02 00 00 00       	pushq  $0x2
 dbb:	e9 c0 ff ff ff       	jmpq   d80 <.plt>

0000000000000dc0 <strncmp@plt>:
 dc0:	ff 25 6a 32 20 00    	jmpq   *0x20326a(%rip)        # 204030 <strncmp@GLIBC_2.2.5>
 dc6:	68 03 00 00 00       	pushq  $0x3
 dcb:	e9 b0 ff ff ff       	jmpq   d80 <.plt>

0000000000000dd0 <strcpy@plt>:
 dd0:	ff 25 62 32 20 00    	jmpq   *0x203262(%rip)        # 204038 <strcpy@GLIBC_2.2.5>
 dd6:	68 04 00 00 00       	pushq  $0x4
 ddb:	e9 a0 ff ff ff       	jmpq   d80 <.plt>

0000000000000de0 <puts@plt>:
 de0:	ff 25 5a 32 20 00    	jmpq   *0x20325a(%rip)        # 204040 <puts@GLIBC_2.2.5>
 de6:	68 05 00 00 00       	pushq  $0x5
 deb:	e9 90 ff ff ff       	jmpq   d80 <.plt>

0000000000000df0 <write@plt>:
 df0:	ff 25 52 32 20 00    	jmpq   *0x203252(%rip)        # 204048 <write@GLIBC_2.2.5>
 df6:	68 06 00 00 00       	pushq  $0x6
 dfb:	e9 80 ff ff ff       	jmpq   d80 <.plt>

0000000000000e00 <mmap@plt>:
 e00:	ff 25 4a 32 20 00    	jmpq   *0x20324a(%rip)        # 204050 <mmap@GLIBC_2.2.5>
 e06:	68 07 00 00 00       	pushq  $0x7
 e0b:	e9 70 ff ff ff       	jmpq   d80 <.plt>

0000000000000e10 <printf@plt>:
 e10:	ff 25 42 32 20 00    	jmpq   *0x203242(%rip)        # 204058 <printf@GLIBC_2.2.5>
 e16:	68 08 00 00 00       	pushq  $0x8
 e1b:	e9 60 ff ff ff       	jmpq   d80 <.plt>

0000000000000e20 <memset@plt>:
 e20:	ff 25 3a 32 20 00    	jmpq   *0x20323a(%rip)        # 204060 <memset@GLIBC_2.2.5>
 e26:	68 09 00 00 00       	pushq  $0x9
 e2b:	e9 50 ff ff ff       	jmpq   d80 <.plt>

0000000000000e30 <alarm@plt>:
 e30:	ff 25 32 32 20 00    	jmpq   *0x203232(%rip)        # 204068 <alarm@GLIBC_2.2.5>
 e36:	68 0a 00 00 00       	pushq  $0xa
 e3b:	e9 40 ff ff ff       	jmpq   d80 <.plt>

0000000000000e40 <close@plt>:
 e40:	ff 25 2a 32 20 00    	jmpq   *0x20322a(%rip)        # 204070 <close@GLIBC_2.2.5>
 e46:	68 0b 00 00 00       	pushq  $0xb
 e4b:	e9 30 ff ff ff       	jmpq   d80 <.plt>

0000000000000e50 <read@plt>:
 e50:	ff 25 22 32 20 00    	jmpq   *0x203222(%rip)        # 204078 <read@GLIBC_2.2.5>
 e56:	68 0c 00 00 00       	pushq  $0xc
 e5b:	e9 20 ff ff ff       	jmpq   d80 <.plt>

0000000000000e60 <signal@plt>:
 e60:	ff 25 1a 32 20 00    	jmpq   *0x20321a(%rip)        # 204080 <signal@GLIBC_2.2.5>
 e66:	68 0d 00 00 00       	pushq  $0xd
 e6b:	e9 10 ff ff ff       	jmpq   d80 <.plt>

0000000000000e70 <gethostbyname@plt>:
 e70:	ff 25 12 32 20 00    	jmpq   *0x203212(%rip)        # 204088 <gethostbyname@GLIBC_2.2.5>
 e76:	68 0e 00 00 00       	pushq  $0xe
 e7b:	e9 00 ff ff ff       	jmpq   d80 <.plt>

0000000000000e80 <fprintf@plt>:
 e80:	ff 25 0a 32 20 00    	jmpq   *0x20320a(%rip)        # 204090 <fprintf@GLIBC_2.2.5>
 e86:	68 0f 00 00 00       	pushq  $0xf
 e8b:	e9 f0 fe ff ff       	jmpq   d80 <.plt>

0000000000000e90 <strtol@plt>:
 e90:	ff 25 02 32 20 00    	jmpq   *0x203202(%rip)        # 204098 <strtol@GLIBC_2.2.5>
 e96:	68 10 00 00 00       	pushq  $0x10
 e9b:	e9 e0 fe ff ff       	jmpq   d80 <.plt>

0000000000000ea0 <memcpy@plt>:
 ea0:	ff 25 fa 31 20 00    	jmpq   *0x2031fa(%rip)        # 2040a0 <memcpy@GLIBC_2.14>
 ea6:	68 11 00 00 00       	pushq  $0x11
 eab:	e9 d0 fe ff ff       	jmpq   d80 <.plt>

0000000000000eb0 <time@plt>:
 eb0:	ff 25 f2 31 20 00    	jmpq   *0x2031f2(%rip)        # 2040a8 <time@GLIBC_2.2.5>
 eb6:	68 12 00 00 00       	pushq  $0x12
 ebb:	e9 c0 fe ff ff       	jmpq   d80 <.plt>

0000000000000ec0 <random@plt>:
 ec0:	ff 25 ea 31 20 00    	jmpq   *0x2031ea(%rip)        # 2040b0 <random@GLIBC_2.2.5>
 ec6:	68 13 00 00 00       	pushq  $0x13
 ecb:	e9 b0 fe ff ff       	jmpq   d80 <.plt>

0000000000000ed0 <_IO_getc@plt>:
 ed0:	ff 25 e2 31 20 00    	jmpq   *0x2031e2(%rip)        # 2040b8 <_IO_getc@GLIBC_2.2.5>
 ed6:	68 14 00 00 00       	pushq  $0x14
 edb:	e9 a0 fe ff ff       	jmpq   d80 <.plt>

0000000000000ee0 <__isoc99_sscanf@plt>:
 ee0:	ff 25 da 31 20 00    	jmpq   *0x2031da(%rip)        # 2040c0 <__isoc99_sscanf@GLIBC_2.7>
 ee6:	68 15 00 00 00       	pushq  $0x15
 eeb:	e9 90 fe ff ff       	jmpq   d80 <.plt>

0000000000000ef0 <munmap@plt>:
 ef0:	ff 25 d2 31 20 00    	jmpq   *0x2031d2(%rip)        # 2040c8 <munmap@GLIBC_2.2.5>
 ef6:	68 16 00 00 00       	pushq  $0x16
 efb:	e9 80 fe ff ff       	jmpq   d80 <.plt>

0000000000000f00 <bcopy@plt>:
 f00:	ff 25 ca 31 20 00    	jmpq   *0x2031ca(%rip)        # 2040d0 <bcopy@GLIBC_2.2.5>
 f06:	68 17 00 00 00       	pushq  $0x17
 f0b:	e9 70 fe ff ff       	jmpq   d80 <.plt>

0000000000000f10 <fopen@plt>:
 f10:	ff 25 c2 31 20 00    	jmpq   *0x2031c2(%rip)        # 2040d8 <fopen@GLIBC_2.2.5>
 f16:	68 18 00 00 00       	pushq  $0x18
 f1b:	e9 60 fe ff ff       	jmpq   d80 <.plt>

0000000000000f20 <getopt@plt>:
 f20:	ff 25 ba 31 20 00    	jmpq   *0x2031ba(%rip)        # 2040e0 <getopt@GLIBC_2.2.5>
 f26:	68 19 00 00 00       	pushq  $0x19
 f2b:	e9 50 fe ff ff       	jmpq   d80 <.plt>

0000000000000f30 <strtoul@plt>:
 f30:	ff 25 b2 31 20 00    	jmpq   *0x2031b2(%rip)        # 2040e8 <strtoul@GLIBC_2.2.5>
 f36:	68 1a 00 00 00       	pushq  $0x1a
 f3b:	e9 40 fe ff ff       	jmpq   d80 <.plt>

0000000000000f40 <gethostname@plt>:
 f40:	ff 25 aa 31 20 00    	jmpq   *0x2031aa(%rip)        # 2040f0 <gethostname@GLIBC_2.2.5>
 f46:	68 1b 00 00 00       	pushq  $0x1b
 f4b:	e9 30 fe ff ff       	jmpq   d80 <.plt>

0000000000000f50 <sprintf@plt>:
 f50:	ff 25 a2 31 20 00    	jmpq   *0x2031a2(%rip)        # 2040f8 <sprintf@GLIBC_2.2.5>
 f56:	68 1c 00 00 00       	pushq  $0x1c
 f5b:	e9 20 fe ff ff       	jmpq   d80 <.plt>

0000000000000f60 <exit@plt>:
 f60:	ff 25 9a 31 20 00    	jmpq   *0x20319a(%rip)        # 204100 <exit@GLIBC_2.2.5>
 f66:	68 1d 00 00 00       	pushq  $0x1d
 f6b:	e9 10 fe ff ff       	jmpq   d80 <.plt>

0000000000000f70 <connect@plt>:
 f70:	ff 25 92 31 20 00    	jmpq   *0x203192(%rip)        # 204108 <connect@GLIBC_2.2.5>
 f76:	68 1e 00 00 00       	pushq  $0x1e
 f7b:	e9 00 fe ff ff       	jmpq   d80 <.plt>

0000000000000f80 <socket@plt>:
 f80:	ff 25 8a 31 20 00    	jmpq   *0x20318a(%rip)        # 204110 <socket@GLIBC_2.2.5>
 f86:	68 1f 00 00 00       	pushq  $0x1f
 f8b:	e9 f0 fd ff ff       	jmpq   d80 <.plt>

Disassembly of section .plt.got:

0000000000000f90 <__cxa_finalize@plt>:
 f90:	ff 25 62 30 20 00    	jmpq   *0x203062(%rip)        # 203ff8 <__cxa_finalize@GLIBC_2.2.5>
 f96:	66 90                	xchg   %ax,%ax

Disassembly of section .text:

0000000000000fa0 <_start>:
     fa0:	31 ed                	xor    %ebp,%ebp
     fa2:	49 89 d1             	mov    %rdx,%r9
     fa5:	5e                   	pop    %rsi
     fa6:	48 89 e2             	mov    %rsp,%rdx
     fa9:	48 83 e4 f0          	and    $0xfffffffffffffff0,%rsp
     fad:	50                   	push   %rax
     fae:	54                   	push   %rsp
     faf:	4c 8d 05 ba 1e 00 00 	lea    0x1eba(%rip),%r8        # 2e70 <__libc_csu_fini>
     fb6:	48 8d 0d 43 1e 00 00 	lea    0x1e43(%rip),%rcx        # 2e00 <__libc_csu_init>
     fbd:	48 8d 3d c3 02 00 00 	lea    0x2c3(%rip),%rdi        # 1287 <main>
     fc4:	ff 15 0e 30 20 00    	callq  *0x20300e(%rip)        # 203fd8 <__libc_start_main@GLIBC_2.2.5>
     fca:	f4                   	hlt    
     fcb:	0f 1f 44 00 00       	nopl   0x0(%rax,%rax,1)

0000000000000fd0 <deregister_tm_clones>:
     fd0:	48 8d 3d 81 31 20 00 	lea    0x203181(%rip),%rdi        # 204158 <__TMC_END__>
     fd7:	48 8d 05 81 31 20 00 	lea    0x203181(%rip),%rax        # 20415f <__TMC_END__+0x7>
     fde:	55                   	push   %rbp
     fdf:	48 29 f8             	sub    %rdi,%rax
     fe2:	48 89 e5             	mov    %rsp,%rbp
     fe5:	48 83 f8 0e          	cmp    $0xe,%rax
     fe9:	76 15                	jbe    1000 <deregister_tm_clones+0x30>
     feb:	48 8b 05 de 2f 20 00 	mov    0x202fde(%rip),%rax        # 203fd0 <_ITM_deregisterTMCloneTable>
     ff2:	48 85 c0             	test   %rax,%rax
     ff5:	74 09                	je     1000 <deregister_tm_clones+0x30>
     ff7:	5d                   	pop    %rbp
     ff8:	ff e0                	jmpq   *%rax
     ffa:	66 0f 1f 44 00 00    	nopw   0x0(%rax,%rax,1)
    1000:	5d                   	pop    %rbp
    1001:	c3                   	retq   
    1002:	0f 1f 40 00          	nopl   0x0(%rax)
    1006:	66 2e 0f 1f 84 00 00 	nopw   %cs:0x0(%rax,%rax,1)
    100d:	00 00 00 

0000000000001010 <register_tm_clones>:
    1010:	48 8d 3d 41 31 20 00 	lea    0x203141(%rip),%rdi        # 204158 <__TMC_END__>
    1017:	48 8d 35 3a 31 20 00 	lea    0x20313a(%rip),%rsi        # 204158 <__TMC_END__>
    101e:	55                   	push   %rbp
    101f:	48 29 fe             	sub    %rdi,%rsi
    1022:	48 89 e5             	mov    %rsp,%rbp
    1025:	48 c1 fe 03          	sar    $0x3,%rsi
    1029:	48 89 f0             	mov    %rsi,%rax
    102c:	48 c1 e8 3f          	shr    $0x3f,%rax
    1030:	48 01 c6             	add    %rax,%rsi
    1033:	48 d1 fe             	sar    %rsi
    1036:	74 18                	je     1050 <register_tm_clones+0x40>
    1038:	48 8b 05 b1 2f 20 00 	mov    0x202fb1(%rip),%rax        # 203ff0 <_ITM_registerTMCloneTable>
    103f:	48 85 c0             	test   %rax,%rax
    1042:	74 0c                	je     1050 <register_tm_clones+0x40>
    1044:	5d                   	pop    %rbp
    1045:	ff e0                	jmpq   *%rax
    1047:	66 0f 1f 84 00 00 00 	nopw   0x0(%rax,%rax,1)
    104e:	00 00 
    1050:	5d                   	pop    %rbp
    1051:	c3                   	retq   
    1052:	0f 1f 40 00          	nopl   0x0(%rax)
    1056:	66 2e 0f 1f 84 00 00 	nopw   %cs:0x0(%rax,%rax,1)
    105d:	00 00 00 

0000000000001060 <__do_global_dtors_aux>:
    1060:	80 3d 21 31 20 00 00 	cmpb   $0x0,0x203121(%rip)        # 204188 <completed.6972>
    1067:	75 27                	jne    1090 <__do_global_dtors_aux+0x30>
    1069:	48 83 3d 87 2f 20 00 	cmpq   $0x0,0x202f87(%rip)        # 203ff8 <__cxa_finalize@GLIBC_2.2.5>
    1070:	00 
    1071:	55                   	push   %rbp
    1072:	48 89 e5             	mov    %rsp,%rbp
    1075:	74 0c                	je     1083 <__do_global_dtors_aux+0x23>
    1077:	48 8b 3d a2 30 20 00 	mov    0x2030a2(%rip),%rdi        # 204120 <__dso_handle>
    107e:	e8 0d ff ff ff       	callq  f90 <__cxa_finalize@plt>
    1083:	e8 48 ff ff ff       	callq  fd0 <deregister_tm_clones>
    1088:	5d                   	pop    %rbp
    1089:	c6 05 f8 30 20 00 01 	movb   $0x1,0x2030f8(%rip)        # 204188 <completed.6972>
    1090:	f3 c3                	repz retq 
    1092:	0f 1f 40 00          	nopl   0x0(%rax)
    1096:	66 2e 0f 1f 84 00 00 	nopw   %cs:0x0(%rax,%rax,1)
    109d:	00 00 00 

00000000000010a0 <frame_dummy>:
    10a0:	48 8d 3d 41 2d 20 00 	lea    0x202d41(%rip),%rdi        # 203de8 <__JCR_END__>
    10a7:	48 83 3f 00          	cmpq   $0x0,(%rdi)
    10ab:	75 0b                	jne    10b8 <frame_dummy+0x18>
    10ad:	e9 5e ff ff ff       	jmpq   1010 <register_tm_clones>
    10b2:	66 0f 1f 44 00 00    	nopw   0x0(%rax,%rax,1)
    10b8:	48 8b 05 29 2f 20 00 	mov    0x202f29(%rip),%rax        # 203fe8 <_Jv_RegisterClasses>
    10bf:	48 85 c0             	test   %rax,%rax
    10c2:	74 e9                	je     10ad <frame_dummy+0xd>
    10c4:	55                   	push   %rbp
    10c5:	48 89 e5             	mov    %rsp,%rbp
    10c8:	ff d0                	callq  *%rax
    10ca:	5d                   	pop    %rbp
    10cb:	e9 40 ff ff ff       	jmpq   1010 <register_tm_clones>

00000000000010d0 <usage>:
    10d0:	48 83 ec 08          	sub    $0x8,%rsp
    10d4:	48 89 fe             	mov    %rdi,%rsi
    10d7:	83 3d 0a 34 20 00 00 	cmpl   $0x0,0x20340a(%rip)        # 2044e8 <is_checker>
    10de:	74 4b                	je     112b <usage+0x5b>
    10e0:	48 8d 3d a1 1d 00 00 	lea    0x1da1(%rip),%rdi        # 2e88 <_IO_stdin_used+0x8>
    10e7:	b8 00 00 00 00       	mov    $0x0,%eax
    10ec:	e8 1f fd ff ff       	callq  e10 <printf@plt>
    10f1:	48 8d 3d c8 1d 00 00 	lea    0x1dc8(%rip),%rdi        # 2ec0 <_IO_stdin_used+0x40>
    10f8:	e8 e3 fc ff ff       	callq  de0 <puts@plt>
    10fd:	48 8d 3d f4 1e 00 00 	lea    0x1ef4(%rip),%rdi        # 2ff8 <_IO_stdin_used+0x178>
    1104:	e8 d7 fc ff ff       	callq  de0 <puts@plt>
    1109:	48 8d 3d d8 1d 00 00 	lea    0x1dd8(%rip),%rdi        # 2ee8 <_IO_stdin_used+0x68>
    1110:	e8 cb fc ff ff       	callq  de0 <puts@plt>
    1115:	48 8d 3d f6 1e 00 00 	lea    0x1ef6(%rip),%rdi        # 3012 <_IO_stdin_used+0x192>
    111c:	e8 bf fc ff ff       	callq  de0 <puts@plt>
    1121:	bf 00 00 00 00       	mov    $0x0,%edi
    1126:	e8 35 fe ff ff       	callq  f60 <exit@plt>
    112b:	48 8d 3d fc 1e 00 00 	lea    0x1efc(%rip),%rdi        # 302e <_IO_stdin_used+0x1ae>
    1132:	b8 00 00 00 00       	mov    $0x0,%eax
    1137:	e8 d4 fc ff ff       	callq  e10 <printf@plt>
    113c:	48 8d 3d cd 1d 00 00 	lea    0x1dcd(%rip),%rdi        # 2f10 <_IO_stdin_used+0x90>
    1143:	e8 98 fc ff ff       	callq  de0 <puts@plt>
    1148:	48 8d 3d e9 1d 00 00 	lea    0x1de9(%rip),%rdi        # 2f38 <_IO_stdin_used+0xb8>
    114f:	e8 8c fc ff ff       	callq  de0 <puts@plt>
    1154:	48 8d 3d f1 1e 00 00 	lea    0x1ef1(%rip),%rdi        # 304c <_IO_stdin_used+0x1cc>
    115b:	e8 80 fc ff ff       	callq  de0 <puts@plt>
    1160:	eb bf                	jmp    1121 <usage+0x51>

0000000000001162 <initialize_target>:
    1162:	55                   	push   %rbp
    1163:	53                   	push   %rbx
    1164:	48 81 ec 08 21 00 00 	sub    $0x2108,%rsp
    116b:	89 f5                	mov    %esi,%ebp
    116d:	89 3d 65 33 20 00    	mov    %edi,0x203365(%rip)        # 2044d8 <check_level>
    1173:	8b 3d af 2f 20 00    	mov    0x202faf(%rip),%edi        # 204128 <target_id>
    1179:	e8 60 1c 00 00       	callq  2dde <gencookie>
    117e:	89 05 60 33 20 00    	mov    %eax,0x203360(%rip)        # 2044e4 <cookie>
    1184:	89 c7                	mov    %eax,%edi
    1186:	e8 53 1c 00 00       	callq  2dde <gencookie>
    118b:	89 05 4f 33 20 00    	mov    %eax,0x20334f(%rip)        # 2044e0 <authkey>
    1191:	8b 05 91 2f 20 00    	mov    0x202f91(%rip),%eax        # 204128 <target_id>
    1197:	8d 78 01             	lea    0x1(%rax),%edi
    119a:	e8 11 fc ff ff       	callq  db0 <srandom@plt>
    119f:	e8 1c fd ff ff       	callq  ec0 <random@plt>
    11a4:	89 c7                	mov    %eax,%edi
    11a6:	e8 c3 02 00 00       	callq  146e <scramble>
    11ab:	89 c3                	mov    %eax,%ebx
    11ad:	85 ed                	test   %ebp,%ebp
    11af:	75 3d                	jne    11ee <initialize_target+0x8c>
    11b1:	b8 00 00 00 00       	mov    $0x0,%eax
    11b6:	01 d8                	add    %ebx,%eax
    11b8:	0f b7 c0             	movzwl %ax,%eax
    11bb:	8d 04 c5 00 01 00 00 	lea    0x100(,%rax,8),%eax
    11c2:	89 c0                	mov    %eax,%eax
    11c4:	48 89 05 7d 2f 20 00 	mov    %rax,0x202f7d(%rip)        # 204148 <buf_offset>
    11cb:	c6 05 36 3f 20 00 63 	movb   $0x63,0x203f36(%rip)        # 205108 <target_prefix>
    11d2:	83 3d 77 2f 20 00 00 	cmpl   $0x0,0x202f77(%rip)        # 204150 <notify>
    11d9:	74 09                	je     11e4 <initialize_target+0x82>
    11db:	83 3d 06 33 20 00 00 	cmpl   $0x0,0x203306(%rip)        # 2044e8 <is_checker>
    11e2:	74 22                	je     1206 <initialize_target+0xa4>
    11e4:	48 81 c4 08 21 00 00 	add    $0x2108,%rsp
    11eb:	5b                   	pop    %rbx
    11ec:	5d                   	pop    %rbp
    11ed:	c3                   	retq   
    11ee:	bf 00 00 00 00       	mov    $0x0,%edi
    11f3:	e8 b8 fc ff ff       	callq  eb0 <time@plt>
    11f8:	89 c7                	mov    %eax,%edi
    11fa:	e8 b1 fb ff ff       	callq  db0 <srandom@plt>
    11ff:	e8 bc fc ff ff       	callq  ec0 <random@plt>
    1204:	eb b0                	jmp    11b6 <initialize_target+0x54>
    1206:	48 89 e7             	mov    %rsp,%rdi
    1209:	be 00 01 00 00       	mov    $0x100,%esi
    120e:	e8 2d fd ff ff       	callq  f40 <gethostname@plt>
    1213:	89 c3                	mov    %eax,%ebx
    1215:	85 c0                	test   %eax,%eax
    1217:	75 24                	jne    123d <initialize_target+0xdb>
    1219:	48 63 c3             	movslq %ebx,%rax
    121c:	48 8d 15 7d 2f 20 00 	lea    0x202f7d(%rip),%rdx        # 2041a0 <host_table>
    1223:	48 8b 3c c2          	mov    (%rdx,%rax,8),%rdi
    1227:	48 85 ff             	test   %rdi,%rdi
    122a:	74 27                	je     1253 <initialize_target+0xf1>
    122c:	48 89 e6             	mov    %rsp,%rsi
    122f:	e8 5c fb ff ff       	callq  d90 <strcasecmp@plt>
    1234:	85 c0                	test   %eax,%eax
    1236:	74 1b                	je     1253 <initialize_target+0xf1>
    1238:	83 c3 01             	add    $0x1,%ebx
    123b:	eb dc                	jmp    1219 <initialize_target+0xb7>
    123d:	48 8d 3d 24 1d 00 00 	lea    0x1d24(%rip),%rdi        # 2f68 <_IO_stdin_used+0xe8>
    1244:	e8 97 fb ff ff       	callq  de0 <puts@plt>
    1249:	bf 08 00 00 00       	mov    $0x8,%edi
    124e:	e8 0d fd ff ff       	callq  f60 <exit@plt>
    1253:	48 8d bc 24 00 01 00 	lea    0x100(%rsp),%rdi
    125a:	00 
    125b:	e8 03 19 00 00       	callq  2b63 <init_driver>
    1260:	85 c0                	test   %eax,%eax
    1262:	79 80                	jns    11e4 <initialize_target+0x82>
    1264:	48 8d b4 24 00 01 00 	lea    0x100(%rsp),%rsi
    126b:	00 
    126c:	48 8d 3d 2d 1d 00 00 	lea    0x1d2d(%rip),%rdi        # 2fa0 <_IO_stdin_used+0x120>
    1273:	b8 00 00 00 00       	mov    $0x0,%eax
    1278:	e8 93 fb ff ff       	callq  e10 <printf@plt>
    127d:	bf 08 00 00 00       	mov    $0x8,%edi
    1282:	e8 d9 fc ff ff       	callq  f60 <exit@plt>

0000000000001287 <main>:
    1287:	41 56                	push   %r14
    1289:	41 55                	push   %r13
    128b:	41 54                	push   %r12
    128d:	55                   	push   %rbp
    128e:	53                   	push   %rbx
    128f:	41 89 fc             	mov    %edi,%r12d
    1292:	48 89 f3             	mov    %rsi,%rbx
    1295:	48 8d 35 6d 0c 00 00 	lea    0xc6d(%rip),%rsi        # 1f09 <seghandler>
    129c:	bf 0b 00 00 00       	mov    $0xb,%edi
    12a1:	e8 ba fb ff ff       	callq  e60 <signal@plt>
    12a6:	48 8d 35 08 0c 00 00 	lea    0xc08(%rip),%rsi        # 1eb5 <bushandler>
    12ad:	bf 07 00 00 00       	mov    $0x7,%edi
    12b2:	e8 a9 fb ff ff       	callq  e60 <signal@plt>
    12b7:	48 8d 35 9f 0c 00 00 	lea    0xc9f(%rip),%rsi        # 1f5d <illegalhandler>
    12be:	bf 04 00 00 00       	mov    $0x4,%edi
    12c3:	e8 98 fb ff ff       	callq  e60 <signal@plt>
    12c8:	83 3d 19 32 20 00 00 	cmpl   $0x0,0x203219(%rip)        # 2044e8 <is_checker>
    12cf:	75 58                	jne    1329 <main+0xa2>
    12d1:	48 8d 2d 8d 1d 00 00 	lea    0x1d8d(%rip),%rbp        # 3065 <_IO_stdin_used+0x1e5>
    12d8:	48 8b 05 81 2e 20 00 	mov    0x202e81(%rip),%rax        # 204160 <stdin@@GLIBC_2.2.5>
    12df:	48 89 05 ea 31 20 00 	mov    %rax,0x2031ea(%rip)        # 2044d0 <infile>
    12e6:	41 bd 00 00 00 00    	mov    $0x0,%r13d
    12ec:	41 be 00 00 00 00    	mov    $0x0,%r14d
    12f2:	48 89 ea             	mov    %rbp,%rdx
    12f5:	48 89 de             	mov    %rbx,%rsi
    12f8:	44 89 e7             	mov    %r12d,%edi
    12fb:	e8 20 fc ff ff       	callq  f20 <getopt@plt>
    1300:	3c ff                	cmp    $0xff,%al
    1302:	0f 84 f8 00 00 00    	je     1400 <main+0x179>
    1308:	0f be f0             	movsbl %al,%esi
    130b:	83 e8 61             	sub    $0x61,%eax
    130e:	3c 10                	cmp    $0x10,%al
    1310:	0f 87 d1 00 00 00    	ja     13e7 <main+0x160>
    1316:	0f b6 c0             	movzbl %al,%eax
    1319:	48 8d 15 90 1d 00 00 	lea    0x1d90(%rip),%rdx        # 30b0 <_IO_stdin_used+0x230>
    1320:	48 63 04 82          	movslq (%rdx,%rax,4),%rax
    1324:	48 01 d0             	add    %rdx,%rax
    1327:	ff e0                	jmpq   *%rax
    1329:	48 8d 35 81 0c 00 00 	lea    0xc81(%rip),%rsi        # 1fb1 <sigalrmhandler>
    1330:	bf 0e 00 00 00       	mov    $0xe,%edi
    1335:	e8 26 fb ff ff       	callq  e60 <signal@plt>
    133a:	bf 05 00 00 00       	mov    $0x5,%edi
    133f:	e8 ec fa ff ff       	callq  e30 <alarm@plt>
    1344:	48 8d 2d 1f 1d 00 00 	lea    0x1d1f(%rip),%rbp        # 306a <_IO_stdin_used+0x1ea>
    134b:	eb 8b                	jmp    12d8 <main+0x51>
    134d:	48 8b 3b             	mov    (%rbx),%rdi
    1350:	e8 7b fd ff ff       	callq  10d0 <usage>
    1355:	48 8d 35 69 1f 00 00 	lea    0x1f69(%rip),%rsi        # 32c5 <_IO_stdin_used+0x445>
    135c:	48 8b 3d 05 2e 20 00 	mov    0x202e05(%rip),%rdi        # 204168 <optarg@@GLIBC_2.2.5>
    1363:	e8 a8 fb ff ff       	callq  f10 <fopen@plt>
    1368:	48 89 05 61 31 20 00 	mov    %rax,0x203161(%rip)        # 2044d0 <infile>
    136f:	48 85 c0             	test   %rax,%rax
    1372:	0f 85 7a ff ff ff    	jne    12f2 <main+0x6b>
    1378:	48 8b 15 e9 2d 20 00 	mov    0x202de9(%rip),%rdx        # 204168 <optarg@@GLIBC_2.2.5>
    137f:	48 8d 35 ec 1c 00 00 	lea    0x1cec(%rip),%rsi        # 3072 <_IO_stdin_used+0x1f2>
    1386:	48 8b 3d f3 2d 20 00 	mov    0x202df3(%rip),%rdi        # 204180 <stderr@@GLIBC_2.2.5>
    138d:	e8 ee fa ff ff       	callq  e80 <fprintf@plt>
    1392:	b8 01 00 00 00       	mov    $0x1,%eax
    1397:	e9 c9 00 00 00       	jmpq   1465 <main+0x1de>
    139c:	ba 10 00 00 00       	mov    $0x10,%edx
    13a1:	be 00 00 00 00       	mov    $0x0,%esi
    13a6:	48 8b 3d bb 2d 20 00 	mov    0x202dbb(%rip),%rdi        # 204168 <optarg@@GLIBC_2.2.5>
    13ad:	e8 7e fb ff ff       	callq  f30 <strtoul@plt>
    13b2:	41 89 c6             	mov    %eax,%r14d
    13b5:	e9 38 ff ff ff       	jmpq   12f2 <main+0x6b>

#if __HAVE_FLOAT64 && __GLIBC_USE (IEC_60559_TYPES_EXT)
extern int strfromf64 (char *__dest, size_t __size, const char * __format,
		       _Float64 __f)
     __THROW __nonnull ((3));
#endif
    13ba:	ba 0a 00 00 00       	mov    $0xa,%edx
    13bf:	be 00 00 00 00       	mov    $0x0,%esi
    13c4:	48 8b 3d 9d 2d 20 00 	mov    0x202d9d(%rip),%rdi        # 204168 <optarg@@GLIBC_2.2.5>
    13cb:	e8 c0 fa ff ff       	callq  e90 <strtol@plt>
    13d0:	41 89 c5             	mov    %eax,%r13d
    13d3:	e9 1a ff ff ff       	jmpq   12f2 <main+0x6b>
    13d8:	c7 05 6e 2d 20 00 00 	movl   $0x0,0x202d6e(%rip)        # 204150 <notify>
    13df:	00 00 00 
    13e2:	e9 0b ff ff ff       	jmpq   12f2 <main+0x6b>
    13e7:	48 8d 3d a1 1c 00 00 	lea    0x1ca1(%rip),%rdi        # 308f <_IO_stdin_used+0x20f>
    13ee:	b8 00 00 00 00       	mov    $0x0,%eax
    13f3:	e8 18 fa ff ff       	callq  e10 <printf@plt>
    13f8:	48 8b 3b             	mov    (%rbx),%rdi
    13fb:	e8 d0 fc ff ff       	callq  10d0 <usage>
    1400:	be 00 00 00 00       	mov    $0x0,%esi
    1405:	44 89 ef             	mov    %r13d,%edi
    1408:	e8 55 fd ff ff       	callq  1162 <initialize_target>
    140d:	83 3d d4 30 20 00 00 	cmpl   $0x0,0x2030d4(%rip)        # 2044e8 <is_checker>
    1414:	74 27                	je     143d <main+0x1b6>
    1416:	44 3b 35 c3 30 20 00 	cmp    0x2030c3(%rip),%r14d        # 2044e0 <authkey>
    141d:	74 1e                	je     143d <main+0x1b6>
    141f:	44 89 f6             	mov    %r14d,%esi
    1422:	48 8d 3d 9f 1b 00 00 	lea    0x1b9f(%rip),%rdi        # 2fc8 <_IO_stdin_used+0x148>
    1429:	b8 00 00 00 00       	mov    $0x0,%eax
    142e:	e8 dd f9 ff ff       	callq  e10 <printf@plt>
    1433:	b8 00 00 00 00       	mov    $0x0,%eax
    1438:	e8 48 07 00 00       	callq  1b85 <check_fail>
    143d:	8b 35 a1 30 20 00    	mov    0x2030a1(%rip),%esi        # 2044e4 <cookie>
    1443:	48 8d 3d 58 1c 00 00 	lea    0x1c58(%rip),%rdi        # 30a2 <_IO_stdin_used+0x222>
    144a:	b8 00 00 00 00       	mov    $0x0,%eax
    144f:	e8 bc f9 ff ff       	callq  e10 <printf@plt>
    1454:	48 8b 3d ed 2c 20 00 	mov    0x202ced(%rip),%rdi        # 204148 <buf_offset>
    145b:	e8 2c 0c 00 00       	callq  208c <stable_launch>
    1460:	b8 00 00 00 00       	mov    $0x0,%eax
    1465:	5b                   	pop    %rbx
    1466:	5d                   	pop    %rbp
    1467:	41 5c                	pop    %r12
    1469:	41 5d                	pop    %r13
    146b:	41 5e                	pop    %r14
    146d:	c3                   	retq   

000000000000146e <scramble>:
    146e:	b8 00 00 00 00       	mov    $0x0,%eax
    1473:	eb 11                	jmp    1486 <scramble+0x18>
    1475:	69 d0 28 47 00 00    	imul   $0x4728,%eax,%edx
    147b:	01 fa                	add    %edi,%edx
    147d:	89 c1                	mov    %eax,%ecx
    147f:	89 54 8c d0          	mov    %edx,-0x30(%rsp,%rcx,4)
    1483:	83 c0 01             	add    $0x1,%eax
    1486:	83 f8 09             	cmp    $0x9,%eax
    1489:	76 ea                	jbe    1475 <scramble+0x7>
    148b:	8b 44 24 e4          	mov    -0x1c(%rsp),%eax
    148f:	69 c0 fa 96 00 00    	imul   $0x96fa,%eax,%eax
    1495:	89 44 24 e4          	mov    %eax,-0x1c(%rsp)
    1499:	8b 44 24 d4          	mov    -0x2c(%rsp),%eax
    149d:	69 c0 c1 46 00 00    	imul   $0x46c1,%eax,%eax
    14a3:	89 44 24 d4          	mov    %eax,-0x2c(%rsp)
    14a7:	8b 44 24 d4          	mov    -0x2c(%rsp),%eax
    14ab:	69 c0 78 99 00 00    	imul   $0x9978,%eax,%eax
    14b1:	89 44 24 d4          	mov    %eax,-0x2c(%rsp)
    14b5:	8b 44 24 d0          	mov    -0x30(%rsp),%eax
    14b9:	69 c0 5c 20 00 00    	imul   $0x205c,%eax,%eax
    14bf:	89 44 24 d0          	mov    %eax,-0x30(%rsp)
    14c3:	8b 44 24 e4          	mov    -0x1c(%rsp),%eax
    14c7:	69 c0 20 39 00 00    	imul   $0x3920,%eax,%eax
    14cd:	89 44 24 e4          	mov    %eax,-0x1c(%rsp)
    14d1:	8b 44 24 f4          	mov    -0xc(%rsp),%eax
    14d5:	69 c0 f6 8a 00 00    	imul   $0x8af6,%eax,%eax
    14db:	89 44 24 f4          	mov    %eax,-0xc(%rsp)
    14df:	8b 44 24 e0          	mov    -0x20(%rsp),%eax
    14e3:	69 c0 df b2 00 00    	imul   $0xb2df,%eax,%eax
    14e9:	89 44 24 e0          	mov    %eax,-0x20(%rsp)
    14ed:	8b 44 24 f4          	mov    -0xc(%rsp),%eax
    14f1:	69 c0 cb 4f 00 00    	imul   $0x4fcb,%eax,%eax
    14f7:	89 44 24 f4          	mov    %eax,-0xc(%rsp)
    14fb:	8b 44 24 ec          	mov    -0x14(%rsp),%eax
    14ff:	69 c0 b1 1a 00 00    	imul   $0x1ab1,%eax,%eax
    1505:	89 44 24 ec          	mov    %eax,-0x14(%rsp)
    1509:	8b 44 24 d8          	mov    -0x28(%rsp),%eax
    150d:	69 c0 a3 68 00 00    	imul   $0x68a3,%eax,%eax
    1513:	89 44 24 d8          	mov    %eax,-0x28(%rsp)
    1517:	8b 44 24 f4          	mov    -0xc(%rsp),%eax
    151b:	69 c0 8d 9c 00 00    	imul   $0x9c8d,%eax,%eax
    1521:	89 44 24 f4          	mov    %eax,-0xc(%rsp)
    1525:	8b 44 24 e0          	mov    -0x20(%rsp),%eax
    1529:	69 c0 17 8d 00 00    	imul   $0x8d17,%eax,%eax
    152f:	89 44 24 e0          	mov    %eax,-0x20(%rsp)
    1533:	8b 44 24 d4          	mov    -0x2c(%rsp),%eax
    1537:	69 c0 fd 92 00 00    	imul   $0x92fd,%eax,%eax
    153d:	89 44 24 d4          	mov    %eax,-0x2c(%rsp)
    1541:	8b 44 24 d8          	mov    -0x28(%rsp),%eax
    1545:	69 c0 66 59 00 00    	imul   $0x5966,%eax,%eax
    154b:	89 44 24 d8          	mov    %eax,-0x28(%rsp)
    154f:	8b 44 24 e0          	mov    -0x20(%rsp),%eax
    1553:	69 c0 39 21 00 00    	imul   $0x2139,%eax,%eax
    1559:	89 44 24 e0          	mov    %eax,-0x20(%rsp)
    155d:	8b 44 24 d4          	mov    -0x2c(%rsp),%eax
    1561:	69 c0 d5 48 00 00    	imul   $0x48d5,%eax,%eax
    1567:	89 44 24 d4          	mov    %eax,-0x2c(%rsp)
    156b:	8b 44 24 f0          	mov    -0x10(%rsp),%eax
    156f:	69 c0 a3 82 00 00    	imul   $0x82a3,%eax,%eax
    1575:	89 44 24 f0          	mov    %eax,-0x10(%rsp)
    1579:	8b 44 24 d0          	mov    -0x30(%rsp),%eax
    157d:	69 c0 ce 4e 00 00    	imul   $0x4ece,%eax,%eax
    1583:	89 44 24 d0          	mov    %eax,-0x30(%rsp)
    1587:	8b 44 24 d8          	mov    -0x28(%rsp),%eax
    158b:	69 c0 39 61 00 00    	imul   $0x6139,%eax,%eax
    1591:	89 44 24 d8          	mov    %eax,-0x28(%rsp)
    1595:	8b 44 24 e8          	mov    -0x18(%rsp),%eax
    1599:	69 c0 b4 64 00 00    	imul   $0x64b4,%eax,%eax
    159f:	89 44 24 e8          	mov    %eax,-0x18(%rsp)
    15a3:	8b 44 24 ec          	mov    -0x14(%rsp),%eax
    15a7:	69 c0 ad 6f 00 00    	imul   $0x6fad,%eax,%eax
    15ad:	89 44 24 ec          	mov    %eax,-0x14(%rsp)
    15b1:	8b 44 24 e8          	mov    -0x18(%rsp),%eax
    15b5:	69 c0 11 a3 00 00    	imul   $0xa311,%eax,%eax
    15bb:	89 44 24 e8          	mov    %eax,-0x18(%rsp)
    15bf:	8b 44 24 e8          	mov    -0x18(%rsp),%eax
    15c3:	69 c0 6d 8c 00 00    	imul   $0x8c6d,%eax,%eax
    15c9:	89 44 24 e8          	mov    %eax,-0x18(%rsp)
    15cd:	8b 44 24 e0          	mov    -0x20(%rsp),%eax
    15d1:	69 c0 99 dd 00 00    	imul   $0xdd99,%eax,%eax
    15d7:	89 44 24 e0          	mov    %eax,-0x20(%rsp)
    15db:	8b 44 24 f4          	mov    -0xc(%rsp),%eax
    15df:	69 c0 5e bc 00 00    	imul   $0xbc5e,%eax,%eax
    15e5:	89 44 24 f4          	mov    %eax,-0xc(%rsp)
    15e9:	8b 44 24 e4          	mov    -0x1c(%rsp),%eax
    15ed:	69 c0 ee 83 00 00    	imul   $0x83ee,%eax,%eax
    15f3:	89 44 24 e4          	mov    %eax,-0x1c(%rsp)
    15f7:	8b 44 24 e4          	mov    -0x1c(%rsp),%eax
    15fb:	69 c0 74 14 00 00    	imul   $0x1474,%eax,%eax
    1601:	89 44 24 e4          	mov    %eax,-0x1c(%rsp)
    1605:	8b 44 24 f4          	mov    -0xc(%rsp),%eax
    1609:	69 c0 6e 1c 00 00    	imul   $0x1c6e,%eax,%eax
    160f:	89 44 24 f4          	mov    %eax,-0xc(%rsp)
    1613:	8b 44 24 f0          	mov    -0x10(%rsp),%eax
    1617:	69 c0 8c a3 00 00    	imul   $0xa38c,%eax,%eax
    161d:	89 44 24 f0          	mov    %eax,-0x10(%rsp)
    1621:	8b 44 24 dc          	mov    -0x24(%rsp),%eax
    1625:	69 c0 1e a9 00 00    	imul   $0xa91e,%eax,%eax
    162b:	89 44 24 dc          	mov    %eax,-0x24(%rsp)
    162f:	8b 44 24 dc          	mov    -0x24(%rsp),%eax
    1633:	69 c0 6c ea 00 00    	imul   $0xea6c,%eax,%eax
    1639:	89 44 24 dc          	mov    %eax,-0x24(%rsp)
    163d:	8b 44 24 e4          	mov    -0x1c(%rsp),%eax
    1641:	69 c0 f8 7c 00 00    	imul   $0x7cf8,%eax,%eax
    1647:	89 44 24 e4          	mov    %eax,-0x1c(%rsp)
    164b:	8b 44 24 d0          	mov    -0x30(%rsp),%eax
    164f:	69 c0 89 81 00 00    	imul   $0x8189,%eax,%eax
    1655:	89 44 24 d0          	mov    %eax,-0x30(%rsp)
    1659:	8b 44 24 e0          	mov    -0x20(%rsp),%eax
    165d:	69 c0 2b 89 00 00    	imul   $0x892b,%eax,%eax
    1663:	89 44 24 e0          	mov    %eax,-0x20(%rsp)
    1667:	8b 44 24 d0          	mov    -0x30(%rsp),%eax
    166b:	69 c0 f0 3a 00 00    	imul   $0x3af0,%eax,%eax
    1671:	89 44 24 d0          	mov    %eax,-0x30(%rsp)
    1675:	8b 44 24 dc          	mov    -0x24(%rsp),%eax
    1679:	69 c0 1c 7d 00 00    	imul   $0x7d1c,%eax,%eax
    167f:	89 44 24 dc          	mov    %eax,-0x24(%rsp)
    1683:	8b 44 24 ec          	mov    -0x14(%rsp),%eax
    1687:	69 c0 8b dd 00 00    	imul   $0xdd8b,%eax,%eax
    168d:	89 44 24 ec          	mov    %eax,-0x14(%rsp)
    1691:	8b 44 24 d8          	mov    -0x28(%rsp),%eax
    1695:	69 c0 29 cd 00 00    	imul   $0xcd29,%eax,%eax
    169b:	89 44 24 d8          	mov    %eax,-0x28(%rsp)
    169f:	8b 44 24 ec          	mov    -0x14(%rsp),%eax
    16a3:	69 c0 0a 13 00 00    	imul   $0x130a,%eax,%eax
    16a9:	89 44 24 ec          	mov    %eax,-0x14(%rsp)
    16ad:	8b 44 24 d8          	mov    -0x28(%rsp),%eax
    16b1:	69 c0 16 11 00 00    	imul   $0x1116,%eax,%eax
    16b7:	89 44 24 d8          	mov    %eax,-0x28(%rsp)
    16bb:	8b 44 24 dc          	mov    -0x24(%rsp),%eax
    16bf:	69 c0 00 f1 00 00    	imul   $0xf100,%eax,%eax
    16c5:	89 44 24 dc          	mov    %eax,-0x24(%rsp)
    16c9:	8b 44 24 f0          	mov    -0x10(%rsp),%eax
    16cd:	69 c0 53 28 00 00    	imul   $0x2853,%eax,%eax
    16d3:	89 44 24 f0          	mov    %eax,-0x10(%rsp)
    16d7:	8b 44 24 d4          	mov    -0x2c(%rsp),%eax
    16db:	69 c0 0a a6 00 00    	imul   $0xa60a,%eax,%eax
    16e1:	89 44 24 d4          	mov    %eax,-0x2c(%rsp)
    16e5:	8b 44 24 f4          	mov    -0xc(%rsp),%eax
    16e9:	69 c0 e5 ac 00 00    	imul   $0xace5,%eax,%eax
    16ef:	89 44 24 f4          	mov    %eax,-0xc(%rsp)
    16f3:	8b 44 24 d4          	mov    -0x2c(%rsp),%eax
    16f7:	69 c0 95 ba 00 00    	imul   $0xba95,%eax,%eax
    16fd:	89 44 24 d4          	mov    %eax,-0x2c(%rsp)
    1701:	8b 44 24 e4          	mov    -0x1c(%rsp),%eax
    1705:	69 c0 5c 0e 00 00    	imul   $0xe5c,%eax,%eax
    170b:	89 44 24 e4          	mov    %eax,-0x1c(%rsp)
    170f:	8b 44 24 ec          	mov    -0x14(%rsp),%eax
    1713:	69 c0 f6 47 00 00    	imul   $0x47f6,%eax,%eax
    1719:	89 44 24 ec          	mov    %eax,-0x14(%rsp)
    171d:	8b 44 24 f4          	mov    -0xc(%rsp),%eax
    1721:	69 c0 11 12 00 00    	imul   $0x1211,%eax,%eax
    1727:	89 44 24 f4          	mov    %eax,-0xc(%rsp)
    172b:	8b 44 24 f0          	mov    -0x10(%rsp),%eax
    172f:	69 c0 1b 57 00 00    	imul   $0x571b,%eax,%eax
    1735:	89 44 24 f0          	mov    %eax,-0x10(%rsp)
    1739:	8b 44 24 e0          	mov    -0x20(%rsp),%eax
    173d:	69 c0 42 ac 00 00    	imul   $0xac42,%eax,%eax
    1743:	89 44 24 e0          	mov    %eax,-0x20(%rsp)
    1747:	8b 44 24 e8          	mov    -0x18(%rsp),%eax
    174b:	69 c0 1c 89 00 00    	imul   $0x891c,%eax,%eax
    1751:	89 44 24 e8          	mov    %eax,-0x18(%rsp)
    1755:	8b 44 24 ec          	mov    -0x14(%rsp),%eax
    1759:	69 c0 a9 3c 00 00    	imul   $0x3ca9,%eax,%eax
    175f:	89 44 24 ec          	mov    %eax,-0x14(%rsp)
    1763:	8b 44 24 d4          	mov    -0x2c(%rsp),%eax
    1767:	69 c0 8c 49 00 00    	imul   $0x498c,%eax,%eax
    176d:	89 44 24 d4          	mov    %eax,-0x2c(%rsp)
    1771:	8b 44 24 d8          	mov    -0x28(%rsp),%eax
    1775:	69 c0 9f d0 00 00    	imul   $0xd09f,%eax,%eax
    177b:	89 44 24 d8          	mov    %eax,-0x28(%rsp)
    177f:	8b 44 24 f0          	mov    -0x10(%rsp),%eax
    1783:	69 c0 96 b4 00 00    	imul   $0xb496,%eax,%eax
    1789:	89 44 24 f0          	mov    %eax,-0x10(%rsp)
    178d:	8b 44 24 f0          	mov    -0x10(%rsp),%eax
    1791:	69 c0 fe 2b 00 00    	imul   $0x2bfe,%eax,%eax
    1797:	89 44 24 f0          	mov    %eax,-0x10(%rsp)
    179b:	8b 44 24 e4          	mov    -0x1c(%rsp),%eax
    179f:	69 c0 bb 76 00 00    	imul   $0x76bb,%eax,%eax
    17a5:	89 44 24 e4          	mov    %eax,-0x1c(%rsp)
    17a9:	8b 44 24 dc          	mov    -0x24(%rsp),%eax
    17ad:	69 c0 0a ab 00 00    	imul   $0xab0a,%eax,%eax
    17b3:	89 44 24 dc          	mov    %eax,-0x24(%rsp)
    17b7:	8b 44 24 ec          	mov    -0x14(%rsp),%eax
    17bb:	69 c0 13 99 00 00    	imul   $0x9913,%eax,%eax
    17c1:	89 44 24 ec          	mov    %eax,-0x14(%rsp)
    17c5:	8b 44 24 d8          	mov    -0x28(%rsp),%eax
    17c9:	69 c0 5c 66 00 00    	imul   $0x665c,%eax,%eax
    17cf:	89 44 24 d8          	mov    %eax,-0x28(%rsp)
    17d3:	8b 44 24 e4          	mov    -0x1c(%rsp),%eax
    17d7:	69 c0 f3 ad 00 00    	imul   $0xadf3,%eax,%eax
    17dd:	89 44 24 e4          	mov    %eax,-0x1c(%rsp)
    17e1:	8b 44 24 ec          	mov    -0x14(%rsp),%eax
    17e5:	69 c0 aa f8 00 00    	imul   $0xf8aa,%eax,%eax
    17eb:	89 44 24 ec          	mov    %eax,-0x14(%rsp)
    17ef:	8b 44 24 d4          	mov    -0x2c(%rsp),%eax
    17f3:	6b c0 0e             	imul   $0xe,%eax,%eax
    17f6:	89 44 24 d4          	mov    %eax,-0x2c(%rsp)
    17fa:	8b 44 24 e4          	mov    -0x1c(%rsp),%eax
    17fe:	69 c0 69 bf 00 00    	imul   $0xbf69,%eax,%eax
    1804:	89 44 24 e4          	mov    %eax,-0x1c(%rsp)
    1808:	8b 44 24 e4          	mov    -0x1c(%rsp),%eax
    180c:	69 c0 f7 a5 00 00    	imul   $0xa5f7,%eax,%eax
    1812:	89 44 24 e4          	mov    %eax,-0x1c(%rsp)
    1816:	8b 44 24 d0          	mov    -0x30(%rsp),%eax
    181a:	69 c0 35 e9 00 00    	imul   $0xe935,%eax,%eax
    1820:	89 44 24 d0          	mov    %eax,-0x30(%rsp)
    1824:	8b 44 24 f4          	mov    -0xc(%rsp),%eax
    1828:	69 c0 09 95 00 00    	imul   $0x9509,%eax,%eax
    182e:	89 44 24 f4          	mov    %eax,-0xc(%rsp)
    1832:	8b 44 24 ec          	mov    -0x14(%rsp),%eax
    1836:	69 c0 bb 95 00 00    	imul   $0x95bb,%eax,%eax
    183c:	89 44 24 ec          	mov    %eax,-0x14(%rsp)
    1840:	8b 44 24 d4          	mov    -0x2c(%rsp),%eax
    1844:	69 c0 b2 2f 00 00    	imul   $0x2fb2,%eax,%eax
    184a:	89 44 24 d4          	mov    %eax,-0x2c(%rsp)
    184e:	8b 44 24 d0          	mov    -0x30(%rsp),%eax
    1852:	69 c0 2b 3b 00 00    	imul   $0x3b2b,%eax,%eax
    1858:	89 44 24 d0          	mov    %eax,-0x30(%rsp)
    185c:	8b 44 24 ec          	mov    -0x14(%rsp),%eax
    1860:	69 c0 11 48 00 00    	imul   $0x4811,%eax,%eax
    1866:	89 44 24 ec          	mov    %eax,-0x14(%rsp)
    186a:	8b 44 24 e8          	mov    -0x18(%rsp),%eax
    186e:	69 c0 de 89 00 00    	imul   $0x89de,%eax,%eax
    1874:	89 44 24 e8          	mov    %eax,-0x18(%rsp)
    1878:	8b 44 24 f0          	mov    -0x10(%rsp),%eax
    187c:	69 c0 7b bb 00 00    	imul   $0xbb7b,%eax,%eax
    1882:	89 44 24 f0          	mov    %eax,-0x10(%rsp)
    1886:	8b 44 24 e0          	mov    -0x20(%rsp),%eax
    188a:	69 c0 91 db 00 00    	imul   $0xdb91,%eax,%eax
    1890:	89 44 24 e0          	mov    %eax,-0x20(%rsp)
    1894:	8b 44 24 e0          	mov    -0x20(%rsp),%eax
    1898:	69 c0 d7 8c 00 00    	imul   $0x8cd7,%eax,%eax
    189e:	89 44 24 e0          	mov    %eax,-0x20(%rsp)
    18a2:	8b 44 24 f0          	mov    -0x10(%rsp),%eax
    18a6:	69 c0 36 a8 00 00    	imul   $0xa836,%eax,%eax
    18ac:	89 44 24 f0          	mov    %eax,-0x10(%rsp)
    18b0:	8b 44 24 e8          	mov    -0x18(%rsp),%eax
    18b4:	69 c0 a7 b6 00 00    	imul   $0xb6a7,%eax,%eax
    18ba:	89 44 24 e8          	mov    %eax,-0x18(%rsp)
    18be:	8b 44 24 ec          	mov    -0x14(%rsp),%eax
    18c2:	69 c0 b4 30 00 00    	imul   $0x30b4,%eax,%eax
    18c8:	89 44 24 ec          	mov    %eax,-0x14(%rsp)
    18cc:	8b 44 24 ec          	mov    -0x14(%rsp),%eax
    18d0:	69 c0 9b ab 00 00    	imul   $0xab9b,%eax,%eax
    18d6:	89 44 24 ec          	mov    %eax,-0x14(%rsp)
    18da:	8b 44 24 f4          	mov    -0xc(%rsp),%eax
    18de:	69 c0 de 0d 00 00    	imul   $0xdde,%eax,%eax
    18e4:	89 44 24 f4          	mov    %eax,-0xc(%rsp)
    18e8:	8b 44 24 d8          	mov    -0x28(%rsp),%eax
    18ec:	69 c0 c8 5b 00 00    	imul   $0x5bc8,%eax,%eax
    18f2:	89 44 24 d8          	mov    %eax,-0x28(%rsp)
    18f6:	8b 44 24 dc          	mov    -0x24(%rsp),%eax
    18fa:	69 c0 a7 80 00 00    	imul   $0x80a7,%eax,%eax
    1900:	89 44 24 dc          	mov    %eax,-0x24(%rsp)
    1904:	8b 44 24 d0          	mov    -0x30(%rsp),%eax
    1908:	69 c0 f3 1c 00 00    	imul   $0x1cf3,%eax,%eax
    190e:	89 44 24 d0          	mov    %eax,-0x30(%rsp)
    1912:	8b 44 24 e4          	mov    -0x1c(%rsp),%eax
    1916:	69 c0 67 cf 00 00    	imul   $0xcf67,%eax,%eax
    191c:	89 44 24 e4          	mov    %eax,-0x1c(%rsp)
    1920:	8b 44 24 e0          	mov    -0x20(%rsp),%eax
    1924:	69 c0 bd 7c 00 00    	imul   $0x7cbd,%eax,%eax
    192a:	89 44 24 e0          	mov    %eax,-0x20(%rsp)
    192e:	8b 44 24 d8          	mov    -0x28(%rsp),%eax
    1932:	69 c0 ed 30 00 00    	imul   $0x30ed,%eax,%eax
    1938:	89 44 24 d8          	mov    %eax,-0x28(%rsp)
    193c:	8b 44 24 ec          	mov    -0x14(%rsp),%eax
    1940:	69 c0 bc 71 00 00    	imul   $0x71bc,%eax,%eax
    1946:	89 44 24 ec          	mov    %eax,-0x14(%rsp)
    194a:	ba 00 00 00 00       	mov    $0x0,%edx
    194f:	b8 00 00 00 00       	mov    $0x0,%eax
    1954:	eb 0b                	jmp    1961 <scramble+0x4f3>
    1956:	89 d1                	mov    %edx,%ecx
    1958:	8b 4c 8c d0          	mov    -0x30(%rsp,%rcx,4),%ecx
    195c:	01 c8                	add    %ecx,%eax
    195e:	83 c2 01             	add    $0x1,%edx
    1961:	83 fa 09             	cmp    $0x9,%edx
    1964:	76 f0                	jbe    1956 <scramble+0x4e8>
    1966:	f3 c3                	repz retq 

0000000000001968 <getbuf>:
    1968:	48 83 ec 18          	sub    $0x18,%rsp
    196c:	48 89 e7             	mov    %rsp,%rdi
    196f:	e8 44 02 00 00       	callq  1bb8 <Gets>
    1974:	b8 01 00 00 00       	mov    $0x1,%eax
    1979:	48 83 c4 18          	add    $0x18,%rsp
    197d:	c3                   	retq   

000000000000197e <touch1>:
    197e:	48 83 ec 08          	sub    $0x8,%rsp
    1982:	c7 05 50 2b 20 00 01 	movl   $0x1,0x202b50(%rip)        # 2044dc <vlevel>
    1989:	00 00 00 
    198c:	48 8d 3d 84 17 00 00 	lea    0x1784(%rip),%rdi        # 3117 <_IO_stdin_used+0x297>
    1993:	e8 48 f4 ff ff       	callq  de0 <puts@plt>
    1998:	bf 01 00 00 00       	mov    $0x1,%edi
    199d:	e8 2d 04 00 00       	callq  1dcf <validate>
    19a2:	bf 00 00 00 00       	mov    $0x0,%edi
    19a7:	e8 b4 f5 ff ff       	callq  f60 <exit@plt>

00000000000019ac <touch2>:
    19ac:	48 83 ec 08          	sub    $0x8,%rsp
    19b0:	89 fe                	mov    %edi,%esi
    19b2:	c7 05 20 2b 20 00 02 	movl   $0x2,0x202b20(%rip)        # 2044dc <vlevel>
    19b9:	00 00 00 
    19bc:	39 3d 22 2b 20 00    	cmp    %edi,0x202b22(%rip)        # 2044e4 <cookie>
    19c2:	74 25                	je     19e9 <touch2+0x3d>
    19c4:	48 8d 3d 9d 17 00 00 	lea    0x179d(%rip),%rdi        # 3168 <_IO_stdin_used+0x2e8>
    19cb:	b8 00 00 00 00       	mov    $0x0,%eax
    19d0:	e8 3b f4 ff ff       	callq  e10 <printf@plt>
    19d5:	bf 02 00 00 00       	mov    $0x2,%edi
    19da:	e8 ae 04 00 00       	callq  1e8d <fail>
    19df:	bf 00 00 00 00       	mov    $0x0,%edi
    19e4:	e8 77 f5 ff ff       	callq  f60 <exit@plt>
    19e9:	48 8d 3d 50 17 00 00 	lea    0x1750(%rip),%rdi        # 3140 <_IO_stdin_used+0x2c0>
    19f0:	b8 00 00 00 00       	mov    $0x0,%eax
    19f5:	e8 16 f4 ff ff       	callq  e10 <printf@plt>
    19fa:	bf 02 00 00 00       	mov    $0x2,%edi
    19ff:	e8 cb 03 00 00       	callq  1dcf <validate>
    1a04:	eb d9                	jmp    19df <touch2+0x33>

0000000000001a06 <hexmatch>:
    1a06:	41 54                	push   %r12
    1a08:	55                   	push   %rbp
    1a09:	53                   	push   %rbx
    1a0a:	48 83 ec 70          	sub    $0x70,%rsp
    1a0e:	89 fd                	mov    %edi,%ebp
    1a10:	48 89 f3             	mov    %rsi,%rbx
    1a13:	e8 a8 f4 ff ff       	callq  ec0 <random@plt>
    1a18:	48 89 c1             	mov    %rax,%rcx
    1a1b:	48 ba 0b d7 a3 70 3d 	movabs $0xa3d70a3d70a3d70b,%rdx
    1a22:	0a d7 a3 
    1a25:	48 f7 ea             	imul   %rdx
    1a28:	48 01 ca             	add    %rcx,%rdx
    1a2b:	48 c1 fa 06          	sar    $0x6,%rdx
    1a2f:	48 89 c8             	mov    %rcx,%rax
    1a32:	48 c1 f8 3f          	sar    $0x3f,%rax
    1a36:	48 29 c2             	sub    %rax,%rdx
    1a39:	48 8d 04 92          	lea    (%rdx,%rdx,4),%rax
    1a3d:	48 8d 14 80          	lea    (%rax,%rax,4),%rdx
    1a41:	48 8d 04 95 00 00 00 	lea    0x0(,%rdx,4),%rax
    1a48:	00 
    1a49:	48 29 c1             	sub    %rax,%rcx
    1a4c:	4c 8d 24 0c          	lea    (%rsp,%rcx,1),%r12
    1a50:	89 ea                	mov    %ebp,%edx
    1a52:	48 8d 35 db 16 00 00 	lea    0x16db(%rip),%rsi        # 3134 <_IO_stdin_used+0x2b4>
    1a59:	4c 89 e7             	mov    %r12,%rdi
    1a5c:	b8 00 00 00 00       	mov    $0x0,%eax
    1a61:	e8 ea f4 ff ff       	callq  f50 <sprintf@plt>
    1a66:	ba 09 00 00 00       	mov    $0x9,%edx
    1a6b:	4c 89 e6             	mov    %r12,%rsi
    1a6e:	48 89 df             	mov    %rbx,%rdi
    1a71:	e8 4a f3 ff ff       	callq  dc0 <strncmp@plt>
    1a76:	85 c0                	test   %eax,%eax
    1a78:	0f 94 c0             	sete   %al
    1a7b:	0f b6 c0             	movzbl %al,%eax
    1a7e:	48 83 c4 70          	add    $0x70,%rsp
    1a82:	5b                   	pop    %rbx
    1a83:	5d                   	pop    %rbp
    1a84:	41 5c                	pop    %r12
    1a86:	c3                   	retq   

0000000000001a87 <touch3>:
    1a87:	53                   	push   %rbx
    1a88:	48 89 fb             	mov    %rdi,%rbx
    1a8b:	c7 05 47 2a 20 00 03 	movl   $0x3,0x202a47(%rip)        # 2044dc <vlevel>
    1a92:	00 00 00 
    1a95:	48 89 fe             	mov    %rdi,%rsi
    1a98:	8b 3d 46 2a 20 00    	mov    0x202a46(%rip),%edi        # 2044e4 <cookie>
    1a9e:	e8 63 ff ff ff       	callq  1a06 <hexmatch>
    1aa3:	85 c0                	test   %eax,%eax
    1aa5:	74 28                	je     1acf <touch3+0x48>
    1aa7:	48 89 de             	mov    %rbx,%rsi
    1aaa:	48 8d 3d df 16 00 00 	lea    0x16df(%rip),%rdi        # 3190 <_IO_stdin_used+0x310>
    1ab1:	b8 00 00 00 00       	mov    $0x0,%eax
    1ab6:	e8 55 f3 ff ff       	callq  e10 <printf@plt>
    1abb:	bf 03 00 00 00       	mov    $0x3,%edi
    1ac0:	e8 0a 03 00 00       	callq  1dcf <validate>
    1ac5:	bf 00 00 00 00       	mov    $0x0,%edi
    1aca:	e8 91 f4 ff ff       	callq  f60 <exit@plt>
    1acf:	48 89 de             	mov    %rbx,%rsi
    1ad2:	48 8d 3d df 16 00 00 	lea    0x16df(%rip),%rdi        # 31b8 <_IO_stdin_used+0x338>
    1ad9:	b8 00 00 00 00       	mov    $0x0,%eax
    1ade:	e8 2d f3 ff ff       	callq  e10 <printf@plt>
    1ae3:	bf 03 00 00 00       	mov    $0x3,%edi
    1ae8:	e8 a0 03 00 00       	callq  1e8d <fail>
    1aed:	eb d6                	jmp    1ac5 <touch3+0x3e>

0000000000001aef <test>:
    1aef:	48 83 ec 08          	sub    $0x8,%rsp
    1af3:	b8 00 00 00 00       	mov    $0x0,%eax
    1af8:	e8 6b fe ff ff       	callq  1968 <getbuf>
    1afd:	89 c6                	mov    %eax,%esi
    1aff:	48 8d 3d da 16 00 00 	lea    0x16da(%rip),%rdi        # 31e0 <_IO_stdin_used+0x360>
    1b06:	b8 00 00 00 00       	mov    $0x0,%eax
    1b0b:	e8 00 f3 ff ff       	callq  e10 <printf@plt>
    1b10:	48 83 c4 08          	add    $0x8,%rsp
    1b14:	c3                   	retq   

0000000000001b15 <save_char>:
    1b15:	8b 05 e9 35 20 00    	mov    0x2035e9(%rip),%eax        # 205104 <gets_cnt>
    1b1b:	3d ff 03 00 00       	cmp    $0x3ff,%eax
    1b20:	7f 4a                	jg     1b6c <save_char+0x57>
    1b22:	8d 14 40             	lea    (%rax,%rax,2),%edx
    1b25:	89 f9                	mov    %edi,%ecx
    1b27:	c0 e9 04             	shr    $0x4,%cl
    1b2a:	4c 8d 05 cf 19 00 00 	lea    0x19cf(%rip),%r8        # 3500 <trans_char>
    1b31:	83 e1 0f             	and    $0xf,%ecx
    1b34:	45 0f b6 0c 08       	movzbl (%r8,%rcx,1),%r9d
    1b39:	48 8d 0d c0 29 20 00 	lea    0x2029c0(%rip),%rcx        # 204500 <gets_buf>
    1b40:	48 63 f2             	movslq %edx,%rsi
    1b43:	44 88 0c 31          	mov    %r9b,(%rcx,%rsi,1)
    1b47:	8d 72 01             	lea    0x1(%rdx),%esi
    1b4a:	83 e7 0f             	and    $0xf,%edi
    1b4d:	41 0f b6 3c 38       	movzbl (%r8,%rdi,1),%edi
    1b52:	48 63 f6             	movslq %esi,%rsi
    1b55:	40 88 3c 31          	mov    %dil,(%rcx,%rsi,1)
    1b59:	83 c2 02             	add    $0x2,%edx
    1b5c:	48 63 d2             	movslq %edx,%rdx
    1b5f:	c6 04 11 20          	movb   $0x20,(%rcx,%rdx,1)
    1b63:	83 c0 01             	add    $0x1,%eax
    1b66:	89 05 98 35 20 00    	mov    %eax,0x203598(%rip)        # 205104 <gets_cnt>
    1b6c:	f3 c3                	repz retq 

0000000000001b6e <save_term>:
    1b6e:	8b 05 90 35 20 00    	mov    0x203590(%rip),%eax        # 205104 <gets_cnt>
    1b74:	8d 04 40             	lea    (%rax,%rax,2),%eax
    1b77:	48 98                	cltq   
    1b79:	48 8d 15 80 29 20 00 	lea    0x202980(%rip),%rdx        # 204500 <gets_buf>
    1b80:	c6 04 02 00          	movb   $0x0,(%rdx,%rax,1)
    1b84:	c3                   	retq   

0000000000001b85 <check_fail>:
    1b85:	48 83 ec 08          	sub    $0x8,%rsp
    1b89:	0f be 35 78 35 20 00 	movsbl 0x203578(%rip),%esi        # 205108 <target_prefix>
    1b90:	48 8d 0d 69 29 20 00 	lea    0x202969(%rip),%rcx        # 204500 <gets_buf>
    1b97:	8b 15 3b 29 20 00    	mov    0x20293b(%rip),%edx        # 2044d8 <check_level>
    1b9d:	48 8d 3d 5f 16 00 00 	lea    0x165f(%rip),%rdi        # 3203 <_IO_stdin_used+0x383>
    1ba4:	b8 00 00 00 00       	mov    $0x0,%eax
    1ba9:	e8 62 f2 ff ff       	callq  e10 <printf@plt>
    1bae:	bf 01 00 00 00       	mov    $0x1,%edi
    1bb3:	e8 a8 f3 ff ff       	callq  f60 <exit@plt>

0000000000001bb8 <Gets>:
    1bb8:	41 54                	push   %r12
    1bba:	55                   	push   %rbp
    1bbb:	53                   	push   %rbx
    1bbc:	49 89 fc             	mov    %rdi,%r12
    1bbf:	c7 05 3b 35 20 00 00 	movl   $0x0,0x20353b(%rip)        # 205104 <gets_cnt>
    1bc6:	00 00 00 
    1bc9:	48 89 fb             	mov    %rdi,%rbx
    1bcc:	eb 11                	jmp    1bdf <Gets+0x27>
    1bce:	48 8d 6b 01          	lea    0x1(%rbx),%rbp
    1bd2:	88 03                	mov    %al,(%rbx)
    1bd4:	0f b6 f8             	movzbl %al,%edi
    1bd7:	e8 39 ff ff ff       	callq  1b15 <save_char>
    1bdc:	48 89 eb             	mov    %rbp,%rbx
    1bdf:	48 8b 3d ea 28 20 00 	mov    0x2028ea(%rip),%rdi        # 2044d0 <infile>
    1be6:	e8 e5 f2 ff ff       	callq  ed0 <_IO_getc@plt>
    1beb:	83 f8 ff             	cmp    $0xffffffff,%eax
    1bee:	74 05                	je     1bf5 <Gets+0x3d>
    1bf0:	83 f8 0a             	cmp    $0xa,%eax
    1bf3:	75 d9                	jne    1bce <Gets+0x16>
    1bf5:	c6 03 00             	movb   $0x0,(%rbx)
    1bf8:	b8 00 00 00 00       	mov    $0x0,%eax
    1bfd:	e8 6c ff ff ff       	callq  1b6e <save_term>
    1c02:	4c 89 e0             	mov    %r12,%rax
    1c05:	5b                   	pop    %rbx
    1c06:	5d                   	pop    %rbp
    1c07:	41 5c                	pop    %r12
    1c09:	c3                   	retq   

0000000000001c0a <notify_server>:
    1c0a:	83 3d d7 28 20 00 00 	cmpl   $0x0,0x2028d7(%rip)        # 2044e8 <is_checker>
    1c11:	0f 85 de 00 00 00    	jne    1cf5 <notify_server+0xeb>
    1c17:	55                   	push   %rbp
    1c18:	53                   	push   %rbx
    1c19:	48 81 ec 08 40 00 00 	sub    $0x4008,%rsp
    1c20:	89 fb                	mov    %edi,%ebx
    1c22:	8b 05 dc 34 20 00    	mov    0x2034dc(%rip),%eax        # 205104 <gets_cnt>
    1c28:	83 c0 64             	add    $0x64,%eax
    1c2b:	3d 00 20 00 00       	cmp    $0x2000,%eax
    1c30:	0f 8f c1 00 00 00    	jg     1cf7 <notify_server+0xed>
    1c36:	44 0f be 0d ca 34 20 	movsbl 0x2034ca(%rip),%r9d        # 205108 <target_prefix>
    1c3d:	00 
    1c3e:	83 3d 0b 25 20 00 00 	cmpl   $0x0,0x20250b(%rip)        # 204150 <notify>
    1c45:	0f 84 c7 00 00 00    	je     1d12 <notify_server+0x108>
    1c4b:	44 8b 05 8e 28 20 00 	mov    0x20288e(%rip),%r8d        # 2044e0 <authkey>
    1c52:	85 db                	test   %ebx,%ebx
    1c54:	0f 84 c3 00 00 00    	je     1d1d <notify_server+0x113>
    1c5a:	48 8d 2d b8 15 00 00 	lea    0x15b8(%rip),%rbp        # 3219 <_IO_stdin_used+0x399>
    1c61:	48 8d bc 24 00 20 00 	lea    0x2000(%rsp),%rdi
    1c68:	00 
    1c69:	48 8d 05 90 28 20 00 	lea    0x202890(%rip),%rax        # 204500 <gets_buf>
    1c70:	50                   	push   %rax
    1c71:	56                   	push   %rsi
    1c72:	48 89 e9             	mov    %rbp,%rcx
    1c75:	8b 15 ad 24 20 00    	mov    0x2024ad(%rip),%edx        # 204128 <target_id>
    1c7b:	48 8d 35 a1 15 00 00 	lea    0x15a1(%rip),%rsi        # 3223 <_IO_stdin_used+0x3a3>
    1c82:	b8 00 00 00 00       	mov    $0x0,%eax
    1c87:	e8 c4 f2 ff ff       	callq  f50 <sprintf@plt>
    1c8c:	48 83 c4 10          	add    $0x10,%rsp
    1c90:	83 3d b9 24 20 00 00 	cmpl   $0x0,0x2024b9(%rip)        # 204150 <notify>
    1c97:	0f 84 b8 00 00 00    	je     1d55 <notify_server+0x14b>
    1c9d:	85 db                	test   %ebx,%ebx
    1c9f:	0f 84 a2 00 00 00    	je     1d47 <notify_server+0x13d>
    1ca5:	48 8d 8c 24 00 20 00 	lea    0x2000(%rsp),%rcx
    1cac:	00 
    1cad:	49 89 e1             	mov    %rsp,%r9
    1cb0:	41 b8 00 00 00 00    	mov    $0x0,%r8d
    1cb6:	48 8b 15 7b 24 20 00 	mov    0x20247b(%rip),%rdx        # 204138 <lab>
    1cbd:	48 8b 35 7c 24 20 00 	mov    0x20247c(%rip),%rsi        # 204140 <course>
    1cc4:	48 8b 3d 65 24 20 00 	mov    0x202465(%rip),%rdi        # 204130 <user_id>
    1ccb:	e8 6e 10 00 00       	callq  2d3e <driver_post>
    1cd0:	85 c0                	test   %eax,%eax
    1cd2:	78 55                	js     1d29 <notify_server+0x11f>
    1cd4:	48 8d 3d 8d 16 00 00 	lea    0x168d(%rip),%rdi        # 3368 <_IO_stdin_used+0x4e8>
    1cdb:	e8 00 f1 ff ff       	callq  de0 <puts@plt>
    1ce0:	48 8d 3d 64 15 00 00 	lea    0x1564(%rip),%rdi        # 324b <_IO_stdin_used+0x3cb>
    1ce7:	e8 f4 f0 ff ff       	callq  de0 <puts@plt>
    1cec:	48 81 c4 08 40 00 00 	add    $0x4008,%rsp
    1cf3:	5b                   	pop    %rbx
    1cf4:	5d                   	pop    %rbp
    1cf5:	f3 c3                	repz retq 
    1cf7:	48 8d 3d 3a 16 00 00 	lea    0x163a(%rip),%rdi        # 3338 <_IO_stdin_used+0x4b8>
    1cfe:	b8 00 00 00 00       	mov    $0x0,%eax
    1d03:	e8 08 f1 ff ff       	callq  e10 <printf@plt>
    1d08:	bf 01 00 00 00       	mov    $0x1,%edi
    1d0d:	e8 4e f2 ff ff       	callq  f60 <exit@plt>
    1d12:	41 b8 ff ff ff ff    	mov    $0xffffffff,%r8d
    1d18:	e9 35 ff ff ff       	jmpq   1c52 <notify_server+0x48>
    1d1d:	48 8d 2d fa 14 00 00 	lea    0x14fa(%rip),%rbp        # 321e <_IO_stdin_used+0x39e>
    1d24:	e9 38 ff ff ff       	jmpq   1c61 <notify_server+0x57>
    1d29:	48 89 e6             	mov    %rsp,%rsi
    1d2c:	48 8d 3d 0c 15 00 00 	lea    0x150c(%rip),%rdi        # 323f <_IO_stdin_used+0x3bf>
    1d33:	b8 00 00 00 00       	mov    $0x0,%eax
    1d38:	e8 d3 f0 ff ff       	callq  e10 <printf@plt>
    1d3d:	bf 01 00 00 00       	mov    $0x1,%edi
    1d42:	e8 19 f2 ff ff       	callq  f60 <exit@plt>
    1d47:	48 8d 3d 07 15 00 00 	lea    0x1507(%rip),%rdi        # 3255 <_IO_stdin_used+0x3d5>
    1d4e:	e8 8d f0 ff ff       	callq  de0 <puts@plt>
    1d53:	eb 97                	jmp    1cec <notify_server+0xe2>
    1d55:	48 89 ee             	mov    %rbp,%rsi
    1d58:	48 8d 3d 41 16 00 00 	lea    0x1641(%rip),%rdi        # 33a0 <_IO_stdin_used+0x520>
    1d5f:	b8 00 00 00 00       	mov    $0x0,%eax
    1d64:	e8 a7 f0 ff ff       	callq  e10 <printf@plt>
    1d69:	48 8b 35 c0 23 20 00 	mov    0x2023c0(%rip),%rsi        # 204130 <user_id>
    1d70:	48 8d 3d e5 14 00 00 	lea    0x14e5(%rip),%rdi        # 325c <_IO_stdin_used+0x3dc>
    1d77:	b8 00 00 00 00       	mov    $0x0,%eax
    1d7c:	e8 8f f0 ff ff       	callq  e10 <printf@plt>
    1d81:	48 8b 35 b8 23 20 00 	mov    0x2023b8(%rip),%rsi        # 204140 <course>
    1d88:	48 8d 3d da 14 00 00 	lea    0x14da(%rip),%rdi        # 3269 <_IO_stdin_used+0x3e9>
    1d8f:	b8 00 00 00 00       	mov    $0x0,%eax
    1d94:	e8 77 f0 ff ff       	callq  e10 <printf@plt>
    1d99:	48 8b 35 98 23 20 00 	mov    0x202398(%rip),%rsi        # 204138 <lab>
    1da0:	48 8d 3d ce 14 00 00 	lea    0x14ce(%rip),%rdi        # 3275 <_IO_stdin_used+0x3f5>
    1da7:	b8 00 00 00 00       	mov    $0x0,%eax
    1dac:	e8 5f f0 ff ff       	callq  e10 <printf@plt>
    1db1:	48 8d b4 24 00 20 00 	lea    0x2000(%rsp),%rsi
    1db8:	00 
    1db9:	48 8d 3d be 14 00 00 	lea    0x14be(%rip),%rdi        # 327e <_IO_stdin_used+0x3fe>
    1dc0:	b8 00 00 00 00       	mov    $0x0,%eax
    1dc5:	e8 46 f0 ff ff       	callq  e10 <printf@plt>
    1dca:	e9 1d ff ff ff       	jmpq   1cec <notify_server+0xe2>

0000000000001dcf <validate>:
    1dcf:	53                   	push   %rbx
    1dd0:	89 fb                	mov    %edi,%ebx
    1dd2:	83 3d 0f 27 20 00 00 	cmpl   $0x0,0x20270f(%rip)        # 2044e8 <is_checker>
    1dd9:	74 68                	je     1e43 <validate+0x74>
    1ddb:	39 3d fb 26 20 00    	cmp    %edi,0x2026fb(%rip)        # 2044dc <vlevel>
    1de1:	75 2d                	jne    1e10 <validate+0x41>
    1de3:	8b 35 ef 26 20 00    	mov    0x2026ef(%rip),%esi        # 2044d8 <check_level>
    1de9:	39 f7                	cmp    %esi,%edi
    1deb:	75 39                	jne    1e26 <validate+0x57>
    1ded:	0f be 35 14 33 20 00 	movsbl 0x203314(%rip),%esi        # 205108 <target_prefix>
    1df4:	48 8d 0d 05 27 20 00 	lea    0x202705(%rip),%rcx        # 204500 <gets_buf>
    1dfb:	89 fa                	mov    %edi,%edx
    1dfd:	48 8d 3d a4 14 00 00 	lea    0x14a4(%rip),%rdi        # 32a8 <_IO_stdin_used+0x428>
    1e04:	b8 00 00 00 00       	mov    $0x0,%eax
    1e09:	e8 02 f0 ff ff       	callq  e10 <printf@plt>
    1e0e:	5b                   	pop    %rbx
    1e0f:	c3                   	retq   
    1e10:	48 8d 3d 73 14 00 00 	lea    0x1473(%rip),%rdi        # 328a <_IO_stdin_used+0x40a>
    1e17:	e8 c4 ef ff ff       	callq  de0 <puts@plt>
    1e1c:	b8 00 00 00 00       	mov    $0x0,%eax
    1e21:	e8 5f fd ff ff       	callq  1b85 <check_fail>
    1e26:	89 fa                	mov    %edi,%edx
    1e28:	48 8d 3d 99 15 00 00 	lea    0x1599(%rip),%rdi        # 33c8 <_IO_stdin_used+0x548>
    1e2f:	b8 00 00 00 00       	mov    $0x0,%eax
    1e34:	e8 d7 ef ff ff       	callq  e10 <printf@plt>
    1e39:	b8 00 00 00 00       	mov    $0x0,%eax
    1e3e:	e8 42 fd ff ff       	callq  1b85 <check_fail>
    1e43:	3b 3d 93 26 20 00    	cmp    0x202693(%rip),%edi        # 2044dc <vlevel>
    1e49:	74 1a                	je     1e65 <validate+0x96>
    1e4b:	48 8d 3d 38 14 00 00 	lea    0x1438(%rip),%rdi        # 328a <_IO_stdin_used+0x40a>
    1e52:	e8 89 ef ff ff       	callq  de0 <puts@plt>
    1e57:	89 de                	mov    %ebx,%esi
    1e59:	bf 00 00 00 00       	mov    $0x0,%edi
    1e5e:	e8 a7 fd ff ff       	callq  1c0a <notify_server>
    1e63:	eb a9                	jmp    1e0e <validate+0x3f>
    1e65:	0f be 15 9c 32 20 00 	movsbl 0x20329c(%rip),%edx        # 205108 <target_prefix>
    1e6c:	89 fe                	mov    %edi,%esi
    1e6e:	48 8d 3d 7b 15 00 00 	lea    0x157b(%rip),%rdi        # 33f0 <_IO_stdin_used+0x570>
    1e75:	b8 00 00 00 00       	mov    $0x0,%eax
    1e7a:	e8 91 ef ff ff       	callq  e10 <printf@plt>
    1e7f:	89 de                	mov    %ebx,%esi
    1e81:	bf 01 00 00 00       	mov    $0x1,%edi
    1e86:	e8 7f fd ff ff       	callq  1c0a <notify_server>
    1e8b:	eb 81                	jmp    1e0e <validate+0x3f>

0000000000001e8d <fail>:
    1e8d:	48 83 ec 08          	sub    $0x8,%rsp
    1e91:	83 3d 50 26 20 00 00 	cmpl   $0x0,0x202650(%rip)        # 2044e8 <is_checker>
    1e98:	75 11                	jne    1eab <fail+0x1e>
    1e9a:	89 fe                	mov    %edi,%esi
    1e9c:	bf 00 00 00 00       	mov    $0x0,%edi
    1ea1:	e8 64 fd ff ff       	callq  1c0a <notify_server>
    1ea6:	48 83 c4 08          	add    $0x8,%rsp
    1eaa:	c3                   	retq   
    1eab:	b8 00 00 00 00       	mov    $0x0,%eax
    1eb0:	e8 d0 fc ff ff       	callq  1b85 <check_fail>

0000000000001eb5 <bushandler>:
    1eb5:	48 83 ec 08          	sub    $0x8,%rsp
    1eb9:	83 3d 28 26 20 00 00 	cmpl   $0x0,0x202628(%rip)        # 2044e8 <is_checker>
    1ec0:	74 16                	je     1ed8 <bushandler+0x23>
    1ec2:	48 8d 3d f4 13 00 00 	lea    0x13f4(%rip),%rdi        # 32bd <_IO_stdin_used+0x43d>
    1ec9:	e8 12 ef ff ff       	callq  de0 <puts@plt>
    1ece:	b8 00 00 00 00       	mov    $0x0,%eax
    1ed3:	e8 ad fc ff ff       	callq  1b85 <check_fail>
    1ed8:	48 8d 3d 49 15 00 00 	lea    0x1549(%rip),%rdi        # 3428 <_IO_stdin_used+0x5a8>
    1edf:	e8 fc ee ff ff       	callq  de0 <puts@plt>
    1ee4:	48 8d 3d dc 13 00 00 	lea    0x13dc(%rip),%rdi        # 32c7 <_IO_stdin_used+0x447>
    1eeb:	e8 f0 ee ff ff       	callq  de0 <puts@plt>
    1ef0:	be 00 00 00 00       	mov    $0x0,%esi
    1ef5:	bf 00 00 00 00       	mov    $0x0,%edi
    1efa:	e8 0b fd ff ff       	callq  1c0a <notify_server>
    1eff:	bf 01 00 00 00       	mov    $0x1,%edi
    1f04:	e8 57 f0 ff ff       	callq  f60 <exit@plt>

0000000000001f09 <seghandler>:
    1f09:	48 83 ec 08          	sub    $0x8,%rsp
    1f0d:	83 3d d4 25 20 00 00 	cmpl   $0x0,0x2025d4(%rip)        # 2044e8 <is_checker>
    1f14:	74 16                	je     1f2c <seghandler+0x23>
    1f16:	48 8d 3d c0 13 00 00 	lea    0x13c0(%rip),%rdi        # 32dd <_IO_stdin_used+0x45d>
    1f1d:	e8 be ee ff ff       	callq  de0 <puts@plt>
    1f22:	b8 00 00 00 00       	mov    $0x0,%eax
    1f27:	e8 59 fc ff ff       	callq  1b85 <check_fail>
    1f2c:	48 8d 3d 15 15 00 00 	lea    0x1515(%rip),%rdi        # 3448 <_IO_stdin_used+0x5c8>
    1f33:	e8 a8 ee ff ff       	callq  de0 <puts@plt>
    1f38:	48 8d 3d 88 13 00 00 	lea    0x1388(%rip),%rdi        # 32c7 <_IO_stdin_used+0x447>
    1f3f:	e8 9c ee ff ff       	callq  de0 <puts@plt>
    1f44:	be 00 00 00 00       	mov    $0x0,%esi
    1f49:	bf 00 00 00 00       	mov    $0x0,%edi
    1f4e:	e8 b7 fc ff ff       	callq  1c0a <notify_server>
    1f53:	bf 01 00 00 00       	mov    $0x1,%edi
    1f58:	e8 03 f0 ff ff       	callq  f60 <exit@plt>

0000000000001f5d <illegalhandler>:
    1f5d:	48 83 ec 08          	sub    $0x8,%rsp
    1f61:	83 3d 80 25 20 00 00 	cmpl   $0x0,0x202580(%rip)        # 2044e8 <is_checker>
    1f68:	74 16                	je     1f80 <illegalhandler+0x23>
    1f6a:	48 8d 3d 7f 13 00 00 	lea    0x137f(%rip),%rdi        # 32f0 <_IO_stdin_used+0x470>
    1f71:	e8 6a ee ff ff       	callq  de0 <puts@plt>
    1f76:	b8 00 00 00 00       	mov    $0x0,%eax
    1f7b:	e8 05 fc ff ff       	callq  1b85 <check_fail>
    1f80:	48 8d 3d e9 14 00 00 	lea    0x14e9(%rip),%rdi        # 3470 <_IO_stdin_used+0x5f0>
    1f87:	e8 54 ee ff ff       	callq  de0 <puts@plt>
    1f8c:	48 8d 3d 34 13 00 00 	lea    0x1334(%rip),%rdi        # 32c7 <_IO_stdin_used+0x447>
    1f93:	e8 48 ee ff ff       	callq  de0 <puts@plt>
    1f98:	be 00 00 00 00       	mov    $0x0,%esi
    1f9d:	bf 00 00 00 00       	mov    $0x0,%edi
    1fa2:	e8 63 fc ff ff       	callq  1c0a <notify_server>
    1fa7:	bf 01 00 00 00       	mov    $0x1,%edi
    1fac:	e8 af ef ff ff       	callq  f60 <exit@plt>

0000000000001fb1 <sigalrmhandler>:
    1fb1:	48 83 ec 08          	sub    $0x8,%rsp
    1fb5:	83 3d 2c 25 20 00 00 	cmpl   $0x0,0x20252c(%rip)        # 2044e8 <is_checker>
    1fbc:	74 16                	je     1fd4 <sigalrmhandler+0x23>
    1fbe:	48 8d 3d 3f 13 00 00 	lea    0x133f(%rip),%rdi        # 3304 <_IO_stdin_used+0x484>
    1fc5:	e8 16 ee ff ff       	callq  de0 <puts@plt>
    1fca:	b8 00 00 00 00       	mov    $0x0,%eax
    1fcf:	e8 b1 fb ff ff       	callq  1b85 <check_fail>
    1fd4:	be 05 00 00 00       	mov    $0x5,%esi
    1fd9:	48 8d 3d c0 14 00 00 	lea    0x14c0(%rip),%rdi        # 34a0 <_IO_stdin_used+0x620>
    1fe0:	b8 00 00 00 00       	mov    $0x0,%eax
    1fe5:	e8 26 ee ff ff       	callq  e10 <printf@plt>
    1fea:	be 00 00 00 00       	mov    $0x0,%esi
    1fef:	bf 00 00 00 00       	mov    $0x0,%edi
    1ff4:	e8 11 fc ff ff       	callq  1c0a <notify_server>
    1ff9:	bf 01 00 00 00       	mov    $0x1,%edi
    1ffe:	e8 5d ef ff ff       	callq  f60 <exit@plt>

0000000000002003 <launch>:
    2003:	55                   	push   %rbp
    2004:	48 89 e5             	mov    %rsp,%rbp
    2007:	48 89 fa             	mov    %rdi,%rdx
    200a:	48 8d 47 1e          	lea    0x1e(%rdi),%rax
    200e:	48 83 e0 f0          	and    $0xfffffffffffffff0,%rax
    2012:	48 29 c4             	sub    %rax,%rsp
    2015:	48 8d 7c 24 0f       	lea    0xf(%rsp),%rdi
    201a:	48 83 e7 f0          	and    $0xfffffffffffffff0,%rdi
    201e:	be f4 00 00 00       	mov    $0xf4,%esi
    2023:	e8 f8 ed ff ff       	callq  e20 <memset@plt>
    2028:	48 8b 05 31 21 20 00 	mov    0x202131(%rip),%rax        # 204160 <stdin@@GLIBC_2.2.5>
    202f:	48 39 05 9a 24 20 00 	cmp    %rax,0x20249a(%rip)        # 2044d0 <infile>
    2036:	74 2b                	je     2063 <launch+0x60>
    2038:	c7 05 9a 24 20 00 00 	movl   $0x0,0x20249a(%rip)        # 2044dc <vlevel>
    203f:	00 00 00 
    2042:	b8 00 00 00 00       	mov    $0x0,%eax
    2047:	e8 a3 fa ff ff       	callq  1aef <test>
    204c:	83 3d 95 24 20 00 00 	cmpl   $0x0,0x202495(%rip)        # 2044e8 <is_checker>
    2053:	75 21                	jne    2076 <launch+0x73>
    2055:	48 8d 3d c8 12 00 00 	lea    0x12c8(%rip),%rdi        # 3324 <_IO_stdin_used+0x4a4>
    205c:	e8 7f ed ff ff       	callq  de0 <puts@plt>
    2061:	c9                   	leaveq 
    2062:	c3                   	retq   
    2063:	48 8d 3d a2 12 00 00 	lea    0x12a2(%rip),%rdi        # 330c <_IO_stdin_used+0x48c>
    206a:	b8 00 00 00 00       	mov    $0x0,%eax
    206f:	e8 9c ed ff ff       	callq  e10 <printf@plt>
    2074:	eb c2                	jmp    2038 <launch+0x35>
    2076:	48 8d 3d 9c 12 00 00 	lea    0x129c(%rip),%rdi        # 3319 <_IO_stdin_used+0x499>
    207d:	e8 5e ed ff ff       	callq  de0 <puts@plt>
    2082:	b8 00 00 00 00       	mov    $0x0,%eax
    2087:	e8 f9 fa ff ff       	callq  1b85 <check_fail>

000000000000208c <stable_launch>:
    208c:	53                   	push   %rbx
    208d:	48 89 3d 34 24 20 00 	mov    %rdi,0x202434(%rip)        # 2044c8 <global_offset>
    2094:	41 b9 00 00 00 00    	mov    $0x0,%r9d
    209a:	41 b8 00 00 00 00    	mov    $0x0,%r8d
    20a0:	b9 32 01 00 00       	mov    $0x132,%ecx
    20a5:	ba 07 00 00 00       	mov    $0x7,%edx
    20aa:	be 00 00 10 00       	mov    $0x100000,%esi
    20af:	bf 00 60 58 55       	mov    $0x55586000,%edi
    20b4:	e8 47 ed ff ff       	callq  e00 <mmap@plt>
    20b9:	48 89 c3             	mov    %rax,%rbx
    20bc:	48 3d 00 60 58 55    	cmp    $0x55586000,%rax
    20c2:	75 43                	jne    2107 <stable_launch+0x7b>
    20c4:	48 8d 90 f8 ff 0f 00 	lea    0xffff8(%rax),%rdx
    20cb:	48 89 15 3e 30 20 00 	mov    %rdx,0x20303e(%rip)        # 205110 <stack_top>
    20d2:	48 89 e0             	mov    %rsp,%rax
    20d5:	48 89 d4             	mov    %rdx,%rsp
    20d8:	48 89 c2             	mov    %rax,%rdx
    20db:	48 89 15 de 23 20 00 	mov    %rdx,0x2023de(%rip)        # 2044c0 <global_save_stack>
    20e2:	48 8b 3d df 23 20 00 	mov    0x2023df(%rip),%rdi        # 2044c8 <global_offset>
    20e9:	e8 15 ff ff ff       	callq  2003 <launch>
    20ee:	48 8b 05 cb 23 20 00 	mov    0x2023cb(%rip),%rax        # 2044c0 <global_save_stack>
    20f5:	48 89 c4             	mov    %rax,%rsp
    20f8:	be 00 00 10 00       	mov    $0x100000,%esi
    20fd:	48 89 df             	mov    %rbx,%rdi
    2100:	e8 eb ed ff ff       	callq  ef0 <munmap@plt>
    2105:	5b                   	pop    %rbx
    2106:	c3                   	retq   
    2107:	be 00 00 10 00       	mov    $0x100000,%esi
    210c:	48 89 c7             	mov    %rax,%rdi
    210f:	e8 dc ed ff ff       	callq  ef0 <munmap@plt>
    2114:	ba 00 60 58 55       	mov    $0x55586000,%edx
    2119:	48 8d 35 b8 13 00 00 	lea    0x13b8(%rip),%rsi        # 34d8 <_IO_stdin_used+0x658>
    2120:	48 8b 3d 59 20 20 00 	mov    0x202059(%rip),%rdi        # 204180 <stderr@@GLIBC_2.2.5>
    2127:	b8 00 00 00 00       	mov    $0x0,%eax
    212c:	e8 4f ed ff ff       	callq  e80 <fprintf@plt>
    2131:	bf 01 00 00 00       	mov    $0x1,%edi
    2136:	e8 25 ee ff ff       	callq  f60 <exit@plt>

000000000000213b <rio_readinitb>:
    213b:	89 37                	mov    %esi,(%rdi)
    213d:	c7 47 04 00 00 00 00 	movl   $0x0,0x4(%rdi)
    2144:	48 8d 47 10          	lea    0x10(%rdi),%rax
    2148:	48 89 47 08          	mov    %rax,0x8(%rdi)
    214c:	c3                   	retq   

000000000000214d <sigalrm_handler>:
    214d:	48 83 ec 08          	sub    $0x8,%rsp
    2151:	ba 00 00 00 00       	mov    $0x0,%edx
    2156:	48 8d 35 b3 13 00 00 	lea    0x13b3(%rip),%rsi        # 3510 <trans_char+0x10>
    215d:	48 8b 3d 1c 20 20 00 	mov    0x20201c(%rip),%rdi        # 204180 <stderr@@GLIBC_2.2.5>
    2164:	b8 00 00 00 00       	mov    $0x0,%eax
    2169:	e8 12 ed ff ff       	callq  e80 <fprintf@plt>
    216e:	bf 01 00 00 00       	mov    $0x1,%edi
    2173:	e8 e8 ed ff ff       	callq  f60 <exit@plt>

0000000000002178 <urlencode>:
    2178:	41 54                	push   %r12
    217a:	55                   	push   %rbp
    217b:	53                   	push   %rbx
    217c:	48 83 ec 10          	sub    $0x10,%rsp
    2180:	48 89 fb             	mov    %rdi,%rbx
    2183:	48 89 f5             	mov    %rsi,%rbp
    2186:	b8 00 00 00 00       	mov    $0x0,%eax
    218b:	48 c7 c1 ff ff ff ff 	mov    $0xffffffffffffffff,%rcx
    2192:	f2 ae                	repnz scas %es:(%rdi),%al
    2194:	48 f7 d1             	not    %rcx
    2197:	8d 41 ff             	lea    -0x1(%rcx),%eax
    219a:	eb 0e                	jmp    21aa <urlencode+0x32>
    219c:	88 55 00             	mov    %dl,0x0(%rbp)
    219f:	48 8d 6d 01          	lea    0x1(%rbp),%rbp
    21a3:	48 83 c3 01          	add    $0x1,%rbx
    21a7:	44 89 e0             	mov    %r12d,%eax
    21aa:	44 8d 60 ff          	lea    -0x1(%rax),%r12d
    21ae:	85 c0                	test   %eax,%eax
    21b0:	0f 84 95 00 00 00    	je     224b <urlencode+0xd3>
    21b6:	0f b6 13             	movzbl (%rbx),%edx
    21b9:	80 fa 2a             	cmp    $0x2a,%dl
    21bc:	0f 94 c1             	sete   %cl
    21bf:	80 fa 2d             	cmp    $0x2d,%dl
    21c2:	0f 94 c0             	sete   %al
    21c5:	08 c1                	or     %al,%cl
    21c7:	75 d3                	jne    219c <urlencode+0x24>
    21c9:	80 fa 2e             	cmp    $0x2e,%dl
    21cc:	74 ce                	je     219c <urlencode+0x24>
    21ce:	80 fa 5f             	cmp    $0x5f,%dl
    21d1:	74 c9                	je     219c <urlencode+0x24>
    21d3:	8d 42 d0             	lea    -0x30(%rdx),%eax
    21d6:	3c 09                	cmp    $0x9,%al
    21d8:	76 c2                	jbe    219c <urlencode+0x24>
    21da:	8d 42 bf             	lea    -0x41(%rdx),%eax
    21dd:	3c 19                	cmp    $0x19,%al
    21df:	76 bb                	jbe    219c <urlencode+0x24>
    21e1:	8d 42 9f             	lea    -0x61(%rdx),%eax
    21e4:	3c 19                	cmp    $0x19,%al
    21e6:	76 b4                	jbe    219c <urlencode+0x24>
    21e8:	80 fa 20             	cmp    $0x20,%dl
    21eb:	74 4c                	je     2239 <urlencode+0xc1>
    21ed:	8d 42 e0             	lea    -0x20(%rdx),%eax
    21f0:	3c 5f                	cmp    $0x5f,%al
    21f2:	0f 96 c1             	setbe  %cl
    21f5:	80 fa 09             	cmp    $0x9,%dl
    21f8:	0f 94 c0             	sete   %al
    21fb:	08 c1                	or     %al,%cl
    21fd:	74 47                	je     2246 <urlencode+0xce>
    21ff:	0f b6 d2             	movzbl %dl,%edx
    2202:	48 8d 7c 24 08       	lea    0x8(%rsp),%rdi
    2207:	48 8d 35 9a 13 00 00 	lea    0x139a(%rip),%rsi        # 35a8 <trans_char+0xa8>
    220e:	b8 00 00 00 00       	mov    $0x0,%eax
    2213:	e8 38 ed ff ff       	callq  f50 <sprintf@plt>
    2218:	0f b6 44 24 08       	movzbl 0x8(%rsp),%eax
    221d:	88 45 00             	mov    %al,0x0(%rbp)
    2220:	0f b6 44 24 09       	movzbl 0x9(%rsp),%eax
    2225:	88 45 01             	mov    %al,0x1(%rbp)
    2228:	0f b6 44 24 0a       	movzbl 0xa(%rsp),%eax
    222d:	88 45 02             	mov    %al,0x2(%rbp)
    2230:	48 8d 6d 03          	lea    0x3(%rbp),%rbp
    2234:	e9 6a ff ff ff       	jmpq   21a3 <urlencode+0x2b>
    2239:	c6 45 00 2b          	movb   $0x2b,0x0(%rbp)
    223d:	48 8d 6d 01          	lea    0x1(%rbp),%rbp
    2241:	e9 5d ff ff ff       	jmpq   21a3 <urlencode+0x2b>
    2246:	b8 ff ff ff ff       	mov    $0xffffffff,%eax
    224b:	48 83 c4 10          	add    $0x10,%rsp
    224f:	5b                   	pop    %rbx
    2250:	5d                   	pop    %rbp
    2251:	41 5c                	pop    %r12
    2253:	c3                   	retq   

0000000000002254 <rio_writen>:
    2254:	41 55                	push   %r13
    2256:	41 54                	push   %r12
    2258:	55                   	push   %rbp
    2259:	53                   	push   %rbx
    225a:	48 83 ec 08          	sub    $0x8,%rsp
    225e:	41 89 fc             	mov    %edi,%r12d
    2261:	49 89 d5             	mov    %rdx,%r13
    2264:	48 89 f5             	mov    %rsi,%rbp
    2267:	48 89 d3             	mov    %rdx,%rbx
    226a:	eb 06                	jmp    2272 <rio_writen+0x1e>
    226c:	48 29 c3             	sub    %rax,%rbx
    226f:	48 01 c5             	add    %rax,%rbp
    2272:	48 85 db             	test   %rbx,%rbx
    2275:	74 24                	je     229b <rio_writen+0x47>
    2277:	48 89 da             	mov    %rbx,%rdx
    227a:	48 89 ee             	mov    %rbp,%rsi
    227d:	44 89 e7             	mov    %r12d,%edi
    2280:	e8 6b eb ff ff       	callq  df0 <write@plt>
    2285:	48 85 c0             	test   %rax,%rax
    2288:	7f e2                	jg     226c <rio_writen+0x18>
    228a:	e8 11 eb ff ff       	callq  da0 <__errno_location@plt>
    228f:	83 38 04             	cmpl   $0x4,(%rax)
    2292:	75 15                	jne    22a9 <rio_writen+0x55>
    2294:	b8 00 00 00 00       	mov    $0x0,%eax
    2299:	eb d1                	jmp    226c <rio_writen+0x18>
    229b:	4c 89 e8             	mov    %r13,%rax
    229e:	48 83 c4 08          	add    $0x8,%rsp
    22a2:	5b                   	pop    %rbx
    22a3:	5d                   	pop    %rbp
    22a4:	41 5c                	pop    %r12
    22a6:	41 5d                	pop    %r13
    22a8:	c3                   	retq   
    22a9:	48 c7 c0 ff ff ff ff 	mov    $0xffffffffffffffff,%rax
    22b0:	eb ec                	jmp    229e <rio_writen+0x4a>

00000000000022b2 <rio_read>:
    22b2:	41 55                	push   %r13
    22b4:	41 54                	push   %r12
    22b6:	55                   	push   %rbp
    22b7:	53                   	push   %rbx
    22b8:	48 83 ec 08          	sub    $0x8,%rsp
    22bc:	48 89 fb             	mov    %rdi,%rbx
    22bf:	49 89 f5             	mov    %rsi,%r13
    22c2:	49 89 d4             	mov    %rdx,%r12
    22c5:	eb 0a                	jmp    22d1 <rio_read+0x1f>
    22c7:	e8 d4 ea ff ff       	callq  da0 <__errno_location@plt>
    22cc:	83 38 04             	cmpl   $0x4,(%rax)
    22cf:	75 5c                	jne    232d <rio_read+0x7b>
    22d1:	8b 6b 04             	mov    0x4(%rbx),%ebp
    22d4:	85 ed                	test   %ebp,%ebp
    22d6:	7f 24                	jg     22fc <rio_read+0x4a>
    22d8:	48 8d 6b 10          	lea    0x10(%rbx),%rbp
    22dc:	ba 00 20 00 00       	mov    $0x2000,%edx
    22e1:	48 89 ee             	mov    %rbp,%rsi
    22e4:	8b 3b                	mov    (%rbx),%edi
    22e6:	e8 65 eb ff ff       	callq  e50 <read@plt>
    22eb:	89 43 04             	mov    %eax,0x4(%rbx)
    22ee:	85 c0                	test   %eax,%eax
    22f0:	78 d5                	js     22c7 <rio_read+0x15>
    22f2:	85 c0                	test   %eax,%eax
    22f4:	74 40                	je     2336 <rio_read+0x84>
    22f6:	48 89 6b 08          	mov    %rbp,0x8(%rbx)
    22fa:	eb d5                	jmp    22d1 <rio_read+0x1f>
    22fc:	89 e8                	mov    %ebp,%eax
    22fe:	49 39 c4             	cmp    %rax,%r12
    2301:	77 03                	ja     2306 <rio_read+0x54>
    2303:	44 89 e5             	mov    %r12d,%ebp
    2306:	4c 63 e5             	movslq %ebp,%r12
    2309:	48 8b 73 08          	mov    0x8(%rbx),%rsi
    230d:	4c 89 e2             	mov    %r12,%rdx
    2310:	4c 89 ef             	mov    %r13,%rdi
    2313:	e8 88 eb ff ff       	callq  ea0 <memcpy@plt>
    2318:	4c 01 63 08          	add    %r12,0x8(%rbx)
    231c:	29 6b 04             	sub    %ebp,0x4(%rbx)
    231f:	4c 89 e0             	mov    %r12,%rax
    2322:	48 83 c4 08          	add    $0x8,%rsp
    2326:	5b                   	pop    %rbx
    2327:	5d                   	pop    %rbp
    2328:	41 5c                	pop    %r12
    232a:	41 5d                	pop    %r13
    232c:	c3                   	retq   
    232d:	48 c7 c0 ff ff ff ff 	mov    $0xffffffffffffffff,%rax
    2334:	eb ec                	jmp    2322 <rio_read+0x70>
    2336:	b8 00 00 00 00       	mov    $0x0,%eax
    233b:	eb e5                	jmp    2322 <rio_read+0x70>

000000000000233d <rio_readlineb>:
    233d:	41 55                	push   %r13
    233f:	41 54                	push   %r12
    2341:	55                   	push   %rbp
    2342:	53                   	push   %rbx
    2343:	48 83 ec 18          	sub    $0x18,%rsp
    2347:	49 89 fd             	mov    %rdi,%r13
    234a:	49 89 d4             	mov    %rdx,%r12
    234d:	48 89 f5             	mov    %rsi,%rbp
    2350:	bb 01 00 00 00       	mov    $0x1,%ebx
    2355:	4c 39 e3             	cmp    %r12,%rbx
    2358:	73 47                	jae    23a1 <rio_readlineb+0x64>
    235a:	48 8d 74 24 0f       	lea    0xf(%rsp),%rsi
    235f:	ba 01 00 00 00       	mov    $0x1,%edx
    2364:	4c 89 ef             	mov    %r13,%rdi
    2367:	e8 46 ff ff ff       	callq  22b2 <rio_read>
    236c:	83 f8 01             	cmp    $0x1,%eax
    236f:	75 1c                	jne    238d <rio_readlineb+0x50>
    2371:	48 8d 45 01          	lea    0x1(%rbp),%rax
    2375:	0f b6 54 24 0f       	movzbl 0xf(%rsp),%edx
    237a:	88 55 00             	mov    %dl,0x0(%rbp)
    237d:	80 7c 24 0f 0a       	cmpb   $0xa,0xf(%rsp)
    2382:	74 1a                	je     239e <rio_readlineb+0x61>
    2384:	48 83 c3 01          	add    $0x1,%rbx
    2388:	48 89 c5             	mov    %rax,%rbp
    238b:	eb c8                	jmp    2355 <rio_readlineb+0x18>
    238d:	85 c0                	test   %eax,%eax
    238f:	75 22                	jne    23b3 <rio_readlineb+0x76>
    2391:	48 83 fb 01          	cmp    $0x1,%rbx
    2395:	75 0a                	jne    23a1 <rio_readlineb+0x64>
    2397:	b8 00 00 00 00       	mov    $0x0,%eax
    239c:	eb 0a                	jmp    23a8 <rio_readlineb+0x6b>
    239e:	48 89 c5             	mov    %rax,%rbp
    23a1:	c6 45 00 00          	movb   $0x0,0x0(%rbp)
    23a5:	48 89 d8             	mov    %rbx,%rax
    23a8:	48 83 c4 18          	add    $0x18,%rsp
    23ac:	5b                   	pop    %rbx
    23ad:	5d                   	pop    %rbp
    23ae:	41 5c                	pop    %r12
    23b0:	41 5d                	pop    %r13
    23b2:	c3                   	retq   
    23b3:	48 c7 c0 ff ff ff ff 	mov    $0xffffffffffffffff,%rax
    23ba:	eb ec                	jmp    23a8 <rio_readlineb+0x6b>

00000000000023bc <submitr>:
    23bc:	41 57                	push   %r15
    23be:	41 56                	push   %r14
    23c0:	41 55                	push   %r13
    23c2:	41 54                	push   %r12
    23c4:	55                   	push   %rbp
    23c5:	53                   	push   %rbx
    23c6:	48 81 ec 58 a0 00 00 	sub    $0xa058,%rsp
    23cd:	49 89 fd             	mov    %rdi,%r13
    23d0:	89 74 24 14          	mov    %esi,0x14(%rsp)
    23d4:	49 89 d7             	mov    %rdx,%r15
    23d7:	48 89 4c 24 08       	mov    %rcx,0x8(%rsp)
    23dc:	4c 89 44 24 18       	mov    %r8,0x18(%rsp)
    23e1:	4d 89 ce             	mov    %r9,%r14
    23e4:	48 8b 9c 24 90 a0 00 	mov    0xa090(%rsp),%rbx
    23eb:	00 
    23ec:	c7 84 24 2c 20 00 00 	movl   $0x0,0x202c(%rsp)
    23f3:	00 00 00 00 
    23f7:	ba 00 00 00 00       	mov    $0x0,%edx
    23fc:	be 01 00 00 00       	mov    $0x1,%esi
    2401:	bf 02 00 00 00       	mov    $0x2,%edi
    2406:	e8 75 eb ff ff       	callq  f80 <socket@plt>
    240b:	85 c0                	test   %eax,%eax
    240d:	0f 88 ca 01 00 00    	js     25dd <submitr+0x221>
    2413:	89 c5                	mov    %eax,%ebp
    2415:	4c 89 ef             	mov    %r13,%rdi
    2418:	e8 53 ea ff ff       	callq  e70 <gethostbyname@plt>
    241d:	48 85 c0             	test   %rax,%rax
    2420:	0f 84 05 02 00 00    	je     262b <submitr+0x26f>
    2426:	4c 8d a4 24 40 a0 00 	lea    0xa040(%rsp),%r12
    242d:	00 
    242e:	48 c7 84 24 40 a0 00 	movq   $0x0,0xa040(%rsp)
    2435:	00 00 00 00 00 
    243a:	48 c7 84 24 48 a0 00 	movq   $0x0,0xa048(%rsp)
    2441:	00 00 00 00 00 
    2446:	66 c7 84 24 40 a0 00 	movw   $0x2,0xa040(%rsp)
    244d:	00 02 00 
    2450:	48 8b 48 18          	mov    0x18(%rax),%rcx
    2454:	48 63 50 14          	movslq 0x14(%rax),%rdx
    2458:	48 8d b4 24 44 a0 00 	lea    0xa044(%rsp),%rsi
    245f:	00 
    2460:	48 8b 39             	mov    (%rcx),%rdi
    2463:	e8 98 ea ff ff       	callq  f00 <bcopy@plt>
    2468:	0f b7 44 24 14       	movzwl 0x14(%rsp),%eax
    246d:	66 c1 c8 08          	ror    $0x8,%ax
    2471:	66 89 84 24 42 a0 00 	mov    %ax,0xa042(%rsp)
    2478:	00 
    2479:	ba 10 00 00 00       	mov    $0x10,%edx
    247e:	4c 89 e6             	mov    %r12,%rsi
    2481:	89 ef                	mov    %ebp,%edi
    2483:	e8 e8 ea ff ff       	callq  f70 <connect@plt>
    2488:	85 c0                	test   %eax,%eax
    248a:	0f 88 02 02 00 00    	js     2692 <submitr+0x2d6>
    2490:	48 c7 c6 ff ff ff ff 	mov    $0xffffffffffffffff,%rsi
    2497:	b8 00 00 00 00       	mov    $0x0,%eax
    249c:	48 89 f1             	mov    %rsi,%rcx
    249f:	4c 89 f7             	mov    %r14,%rdi
    24a2:	f2 ae                	repnz scas %es:(%rdi),%al
    24a4:	48 f7 d1             	not    %rcx
    24a7:	48 89 ca             	mov    %rcx,%rdx
    24aa:	48 89 f1             	mov    %rsi,%rcx
    24ad:	4c 89 ff             	mov    %r15,%rdi
    24b0:	f2 ae                	repnz scas %es:(%rdi),%al
    24b2:	48 f7 d1             	not    %rcx
    24b5:	49 89 c8             	mov    %rcx,%r8
    24b8:	48 89 f1             	mov    %rsi,%rcx
    24bb:	48 8b 7c 24 08       	mov    0x8(%rsp),%rdi
    24c0:	f2 ae                	repnz scas %es:(%rdi),%al
    24c2:	48 f7 d1             	not    %rcx
    24c5:	4d 8d 44 08 fe       	lea    -0x2(%r8,%rcx,1),%r8
    24ca:	48 89 f1             	mov    %rsi,%rcx
    24cd:	48 8b 7c 24 18       	mov    0x18(%rsp),%rdi
    24d2:	f2 ae                	repnz scas %es:(%rdi),%al
    24d4:	48 89 c8             	mov    %rcx,%rax
    24d7:	48 f7 d0             	not    %rax
    24da:	49 8d 4c 00 ff       	lea    -0x1(%r8,%rax,1),%rcx
    24df:	48 8d 44 52 fd       	lea    -0x3(%rdx,%rdx,2),%rax
    24e4:	48 8d 84 01 80 00 00 	lea    0x80(%rcx,%rax,1),%rax
    24eb:	00 
    24ec:	48 3d 00 20 00 00    	cmp    $0x2000,%rax
    24f2:	0f 87 f3 01 00 00    	ja     26eb <submitr+0x32f>
    24f8:	48 8d b4 24 30 40 00 	lea    0x4030(%rsp),%rsi
    24ff:	00 
    2500:	b9 00 04 00 00       	mov    $0x400,%ecx
    2505:	b8 00 00 00 00       	mov    $0x0,%eax
    250a:	48 89 f7             	mov    %rsi,%rdi
    250d:	f3 48 ab             	rep stos %rax,%es:(%rdi)
    2510:	4c 89 f7             	mov    %r14,%rdi
    2513:	e8 60 fc ff ff       	callq  2178 <urlencode>
    2518:	85 c0                	test   %eax,%eax
    251a:	0f 88 3d 02 00 00    	js     275d <submitr+0x3a1>
    2520:	4c 8d a4 24 30 60 00 	lea    0x6030(%rsp),%r12
    2527:	00 
    2528:	4d 89 e9             	mov    %r13,%r9
    252b:	4c 8d 84 24 30 40 00 	lea    0x4030(%rsp),%r8
    2532:	00 
    2533:	4c 89 f9             	mov    %r15,%rcx
    2536:	48 8b 54 24 08       	mov    0x8(%rsp),%rdx
    253b:	48 8d 35 f6 0f 00 00 	lea    0xff6(%rip),%rsi        # 3538 <trans_char+0x38>
    2542:	4c 89 e7             	mov    %r12,%rdi
    2545:	b8 00 00 00 00       	mov    $0x0,%eax
    254a:	e8 01 ea ff ff       	callq  f50 <sprintf@plt>
    254f:	b8 00 00 00 00       	mov    $0x0,%eax
    2554:	48 c7 c1 ff ff ff ff 	mov    $0xffffffffffffffff,%rcx
    255b:	4c 89 e7             	mov    %r12,%rdi
    255e:	f2 ae                	repnz scas %es:(%rdi),%al
    2560:	48 f7 d1             	not    %rcx
    2563:	48 8d 51 ff          	lea    -0x1(%rcx),%rdx
    2567:	4c 89 e6             	mov    %r12,%rsi
    256a:	89 ef                	mov    %ebp,%edi
    256c:	e8 e3 fc ff ff       	callq  2254 <rio_writen>
    2571:	48 85 c0             	test   %rax,%rax
    2574:	0f 88 6d 02 00 00    	js     27e7 <submitr+0x42b>
    257a:	4c 8d a4 24 30 80 00 	lea    0x8030(%rsp),%r12
    2581:	00 
    2582:	89 ee                	mov    %ebp,%esi
    2584:	4c 89 e7             	mov    %r12,%rdi
    2587:	e8 af fb ff ff       	callq  213b <rio_readinitb>
    258c:	48 8d b4 24 30 60 00 	lea    0x6030(%rsp),%rsi
    2593:	00 
    2594:	ba 00 20 00 00       	mov    $0x2000,%edx
    2599:	4c 89 e7             	mov    %r12,%rdi
    259c:	e8 9c fd ff ff       	callq  233d <rio_readlineb>
    25a1:	48 85 c0             	test   %rax,%rax
    25a4:	0f 8e ab 02 00 00    	jle    2855 <submitr+0x499>
    25aa:	48 8d 8c 24 2c 20 00 	lea    0x202c(%rsp),%rcx
    25b1:	00 
    25b2:	48 8d 94 24 30 20 00 	lea    0x2030(%rsp),%rdx
    25b9:	00 
    25ba:	48 8d bc 24 30 60 00 	lea    0x6030(%rsp),%rdi
    25c1:	00 
    25c2:	4c 8d 44 24 20       	lea    0x20(%rsp),%r8
    25c7:	48 8d 35 e1 0f 00 00 	lea    0xfe1(%rip),%rsi        # 35af <trans_char+0xaf>
    25ce:	b8 00 00 00 00       	mov    $0x0,%eax
    25d3:	e8 08 e9 ff ff       	callq  ee0 <__isoc99_sscanf@plt>
    25d8:	e9 9f 03 00 00       	jmpq   297c <submitr+0x5c0>
    25dd:	48 b8 45 72 72 6f 72 	movabs $0x43203a726f727245,%rax
    25e4:	3a 20 43 
    25e7:	48 89 03             	mov    %rax,(%rbx)
    25ea:	48 b8 6c 69 65 6e 74 	movabs $0x6e7520746e65696c,%rax
    25f1:	20 75 6e 
    25f4:	48 89 43 08          	mov    %rax,0x8(%rbx)
    25f8:	48 b8 61 62 6c 65 20 	movabs $0x206f7420656c6261,%rax
    25ff:	74 6f 20 
    2602:	48 89 43 10          	mov    %rax,0x10(%rbx)
    2606:	48 b8 63 72 65 61 74 	movabs $0x7320657461657263,%rax
    260d:	65 20 73 
    2610:	48 89 43 18          	mov    %rax,0x18(%rbx)
    2614:	c7 43 20 6f 63 6b 65 	movl   $0x656b636f,0x20(%rbx)
    261b:	66 c7 43 24 74 00    	movw   $0x74,0x24(%rbx)
    2621:	b8 ff ff ff ff       	mov    $0xffffffff,%eax
    2626:	e9 18 03 00 00       	jmpq   2943 <submitr+0x587>
    262b:	48 b8 45 72 72 6f 72 	movabs $0x44203a726f727245,%rax
    2632:	3a 20 44 
    2635:	48 89 03             	mov    %rax,(%rbx)
    2638:	48 b8 4e 53 20 69 73 	movabs $0x6e7520736920534e,%rax
    263f:	20 75 6e 
    2642:	48 89 43 08          	mov    %rax,0x8(%rbx)
    2646:	48 b8 61 62 6c 65 20 	movabs $0x206f7420656c6261,%rax
    264d:	74 6f 20 
    2650:	48 89 43 10          	mov    %rax,0x10(%rbx)
    2654:	48 b8 72 65 73 6f 6c 	movabs $0x2065766c6f736572,%rax
    265b:	76 65 20 
    265e:	48 89 43 18          	mov    %rax,0x18(%rbx)
    2662:	48 b8 73 65 72 76 65 	movabs $0x6120726576726573,%rax
    2669:	72 20 61 
    266c:	48 89 43 20          	mov    %rax,0x20(%rbx)
    2670:	c7 43 28 64 64 72 65 	movl   $0x65726464,0x28(%rbx)
    2677:	66 c7 43 2c 73 73    	movw   $0x7373,0x2c(%rbx)
    267d:	c6 43 2e 00          	movb   $0x0,0x2e(%rbx)
    2681:	89 ef                	mov    %ebp,%edi
    2683:	e8 b8 e7 ff ff       	callq  e40 <close@plt>
    2688:	b8 ff ff ff ff       	mov    $0xffffffff,%eax
    268d:	e9 b1 02 00 00       	jmpq   2943 <submitr+0x587>
    2692:	48 b8 45 72 72 6f 72 	movabs $0x55203a726f727245,%rax
    2699:	3a 20 55 
    269c:	48 89 03             	mov    %rax,(%rbx)
    269f:	48 b8 6e 61 62 6c 65 	movabs $0x6f7420656c62616e,%rax
    26a6:	20 74 6f 
    26a9:	48 89 43 08          	mov    %rax,0x8(%rbx)
    26ad:	48 b8 20 63 6f 6e 6e 	movabs $0x7463656e6e6f6320,%rax
    26b4:	65 63 74 
    26b7:	48 89 43 10          	mov    %rax,0x10(%rbx)
    26bb:	48 b8 20 74 6f 20 74 	movabs $0x20656874206f7420,%rax
    26c2:	68 65 20 
    26c5:	48 89 43 18          	mov    %rax,0x18(%rbx)
    26c9:	c7 43 20 73 65 72 76 	movl   $0x76726573,0x20(%rbx)
    26d0:	66 c7 43 24 65 72    	movw   $0x7265,0x24(%rbx)
    26d6:	c6 43 26 00          	movb   $0x0,0x26(%rbx)
    26da:	89 ef                	mov    %ebp,%edi
    26dc:	e8 5f e7 ff ff       	callq  e40 <close@plt>
    26e1:	b8 ff ff ff ff       	mov    $0xffffffff,%eax
    26e6:	e9 58 02 00 00       	jmpq   2943 <submitr+0x587>
    26eb:	48 b8 45 72 72 6f 72 	movabs $0x52203a726f727245,%rax
    26f2:	3a 20 52 
    26f5:	48 89 03             	mov    %rax,(%rbx)
    26f8:	48 b8 65 73 75 6c 74 	movabs $0x747320746c757365,%rax
    26ff:	20 73 74 
    2702:	48 89 43 08          	mov    %rax,0x8(%rbx)
    2706:	48 b8 72 69 6e 67 20 	movabs $0x6f6f7420676e6972,%rax
    270d:	74 6f 6f 
    2710:	48 89 43 10          	mov    %rax,0x10(%rbx)
    2714:	48 b8 20 6c 61 72 67 	movabs $0x202e656772616c20,%rax
    271b:	65 2e 20 
    271e:	48 89 43 18          	mov    %rax,0x18(%rbx)
    2722:	48 b8 49 6e 63 72 65 	movabs $0x6573616572636e49,%rax
    2729:	61 73 65 
    272c:	48 89 43 20          	mov    %rax,0x20(%rbx)
    2730:	48 b8 20 53 55 42 4d 	movabs $0x5254494d42555320,%rax
    2737:	49 54 52 
    273a:	48 89 43 28          	mov    %rax,0x28(%rbx)
    273e:	48 b8 5f 4d 41 58 42 	movabs $0x46554258414d5f,%rax
    2745:	55 46 00 
    2748:	48 89 43 30          	mov    %rax,0x30(%rbx)
    274c:	89 ef                	mov    %ebp,%edi
    274e:	e8 ed e6 ff ff       	callq  e40 <close@plt>
    2753:	b8 ff ff ff ff       	mov    $0xffffffff,%eax
    2758:	e9 e6 01 00 00       	jmpq   2943 <submitr+0x587>
    275d:	48 b8 45 72 72 6f 72 	movabs $0x52203a726f727245,%rax
    2764:	3a 20 52 
    2767:	48 89 03             	mov    %rax,(%rbx)
    276a:	48 b8 65 73 75 6c 74 	movabs $0x747320746c757365,%rax
    2771:	20 73 74 
    2774:	48 89 43 08          	mov    %rax,0x8(%rbx)
    2778:	48 b8 72 69 6e 67 20 	movabs $0x6e6f6320676e6972,%rax
    277f:	63 6f 6e 
    2782:	48 89 43 10          	mov    %rax,0x10(%rbx)
    2786:	48 b8 74 61 69 6e 73 	movabs $0x6e6120736e696174,%rax
    278d:	20 61 6e 
    2790:	48 89 43 18          	mov    %rax,0x18(%rbx)
    2794:	48 b8 20 69 6c 6c 65 	movabs $0x6c6167656c6c6920,%rax
    279b:	67 61 6c 
    279e:	48 89 43 20          	mov    %rax,0x20(%rbx)
    27a2:	48 b8 20 6f 72 20 75 	movabs $0x72706e7520726f20,%rax
    27a9:	6e 70 72 
    27ac:	48 89 43 28          	mov    %rax,0x28(%rbx)
    27b0:	48 b8 69 6e 74 61 62 	movabs $0x20656c6261746e69,%rax
    27b7:	6c 65 20 
    27ba:	48 89 43 30          	mov    %rax,0x30(%rbx)
    27be:	48 b8 63 68 61 72 61 	movabs $0x6574636172616863,%rax
    27c5:	63 74 65 
    27c8:	48 89 43 38          	mov    %rax,0x38(%rbx)
    27cc:	66 c7 43 40 72 2e    	movw   $0x2e72,0x40(%rbx)
    27d2:	c6 43 42 00          	movb   $0x0,0x42(%rbx)
    27d6:	89 ef                	mov    %ebp,%edi
    27d8:	e8 63 e6 ff ff       	callq  e40 <close@plt>
    27dd:	b8 ff ff ff ff       	mov    $0xffffffff,%eax
    27e2:	e9 5c 01 00 00       	jmpq   2943 <submitr+0x587>
    27e7:	48 b8 45 72 72 6f 72 	movabs $0x43203a726f727245,%rax
    27ee:	3a 20 43 
    27f1:	48 89 03             	mov    %rax,(%rbx)
    27f4:	48 b8 6c 69 65 6e 74 	movabs $0x6e7520746e65696c,%rax
    27fb:	20 75 6e 
    27fe:	48 89 43 08          	mov    %rax,0x8(%rbx)
    2802:	48 b8 61 62 6c 65 20 	movabs $0x206f7420656c6261,%rax
    2809:	74 6f 20 
    280c:	48 89 43 10          	mov    %rax,0x10(%rbx)
    2810:	48 b8 77 72 69 74 65 	movabs $0x6f74206574697277,%rax
    2817:	20 74 6f 
    281a:	48 89 43 18          	mov    %rax,0x18(%rbx)
    281e:	48 b8 20 74 68 65 20 	movabs $0x7365722065687420,%rax
    2825:	72 65 73 
    2828:	48 89 43 20          	mov    %rax,0x20(%rbx)
    282c:	48 b8 75 6c 74 20 73 	movabs $0x7672657320746c75,%rax
    2833:	65 72 76 
    2836:	48 89 43 28          	mov    %rax,0x28(%rbx)
    283a:	66 c7 43 30 65 72    	movw   $0x7265,0x30(%rbx)
    2840:	c6 43 32 00          	movb   $0x0,0x32(%rbx)
    2844:	89 ef                	mov    %ebp,%edi
    2846:	e8 f5 e5 ff ff       	callq  e40 <close@plt>
    284b:	b8 ff ff ff ff       	mov    $0xffffffff,%eax
    2850:	e9 ee 00 00 00       	jmpq   2943 <submitr+0x587>
    2855:	48 b8 45 72 72 6f 72 	movabs $0x43203a726f727245,%rax
    285c:	3a 20 43 
    285f:	48 89 03             	mov    %rax,(%rbx)
    2862:	48 b8 6c 69 65 6e 74 	movabs $0x6e7520746e65696c,%rax
    2869:	20 75 6e 
    286c:	48 89 43 08          	mov    %rax,0x8(%rbx)
    2870:	48 b8 61 62 6c 65 20 	movabs $0x206f7420656c6261,%rax
    2877:	74 6f 20 
    287a:	48 89 43 10          	mov    %rax,0x10(%rbx)
    287e:	48 b8 72 65 61 64 20 	movabs $0x7269662064616572,%rax
    2885:	66 69 72 
    2888:	48 89 43 18          	mov    %rax,0x18(%rbx)
    288c:	48 b8 73 74 20 68 65 	movabs $0x6564616568207473,%rax
    2893:	61 64 65 
    2896:	48 89 43 20          	mov    %rax,0x20(%rbx)
    289a:	48 b8 72 20 66 72 6f 	movabs $0x72206d6f72662072,%rax
    28a1:	6d 20 72 
    28a4:	48 89 43 28          	mov    %rax,0x28(%rbx)
    28a8:	48 b8 65 73 75 6c 74 	movabs $0x657320746c757365,%rax
    28af:	20 73 65 
    28b2:	48 89 43 30          	mov    %rax,0x30(%rbx)
    28b6:	c7 43 38 72 76 65 72 	movl   $0x72657672,0x38(%rbx)
    28bd:	c6 43 3c 00          	movb   $0x0,0x3c(%rbx)
    28c1:	89 ef                	mov    %ebp,%edi
    28c3:	e8 78 e5 ff ff       	callq  e40 <close@plt>
    28c8:	b8 ff ff ff ff       	mov    $0xffffffff,%eax
    28cd:	eb 74                	jmp    2943 <submitr+0x587>
    28cf:	48 b8 45 72 72 6f 72 	movabs $0x43203a726f727245,%rax
    28d6:	3a 20 43 
    28d9:	48 89 03             	mov    %rax,(%rbx)
    28dc:	48 b8 6c 69 65 6e 74 	movabs $0x6e7520746e65696c,%rax
    28e3:	20 75 6e 
    28e6:	48 89 43 08          	mov    %rax,0x8(%rbx)
    28ea:	48 b8 61 62 6c 65 20 	movabs $0x206f7420656c6261,%rax
    28f1:	74 6f 20 
    28f4:	48 89 43 10          	mov    %rax,0x10(%rbx)
    28f8:	48 b8 72 65 61 64 20 	movabs $0x6165682064616572,%rax
    28ff:	68 65 61 
    2902:	48 89 43 18          	mov    %rax,0x18(%rbx)
    2906:	48 b8 64 65 72 73 20 	movabs $0x6f72662073726564,%rax
    290d:	66 72 6f 
    2910:	48 89 43 20          	mov    %rax,0x20(%rbx)
    2914:	48 b8 6d 20 74 68 65 	movabs $0x657220656874206d,%rax
    291b:	20 72 65 
    291e:	48 89 43 28          	mov    %rax,0x28(%rbx)
    2922:	48 b8 73 75 6c 74 20 	movabs $0x72657320746c7573,%rax
    2929:	73 65 72 
    292c:	48 89 43 30          	mov    %rax,0x30(%rbx)
    2930:	c7 43 38 76 65 72 00 	movl   $0x726576,0x38(%rbx)
    2937:	89 ef                	mov    %ebp,%edi
    2939:	e8 02 e5 ff ff       	callq  e40 <close@plt>
    293e:	b8 ff ff ff ff       	mov    $0xffffffff,%eax
    2943:	48 81 c4 58 a0 00 00 	add    $0xa058,%rsp
    294a:	5b                   	pop    %rbx
    294b:	5d                   	pop    %rbp
    294c:	41 5c                	pop    %r12
    294e:	41 5d                	pop    %r13
    2950:	41 5e                	pop    %r14
    2952:	41 5f                	pop    %r15
    2954:	c3                   	retq   
    2955:	85 c0                	test   %eax,%eax
    2957:	74 51                	je     29aa <submitr+0x5ee>
    2959:	48 8d b4 24 30 60 00 	lea    0x6030(%rsp),%rsi
    2960:	00 
    2961:	48 8d bc 24 30 80 00 	lea    0x8030(%rsp),%rdi
    2968:	00 
    2969:	ba 00 20 00 00       	mov    $0x2000,%edx
    296e:	e8 ca f9 ff ff       	callq  233d <rio_readlineb>
    2973:	48 85 c0             	test   %rax,%rax
    2976:	0f 8e 53 ff ff ff    	jle    28cf <submitr+0x513>
    297c:	0f b6 94 24 30 60 00 	movzbl 0x6030(%rsp),%edx
    2983:	00 
    2984:	b8 0d 00 00 00       	mov    $0xd,%eax
    2989:	29 d0                	sub    %edx,%eax
    298b:	75 c8                	jne    2955 <submitr+0x599>
    298d:	0f b6 94 24 31 60 00 	movzbl 0x6031(%rsp),%edx
    2994:	00 
    2995:	b8 0a 00 00 00       	mov    $0xa,%eax
    299a:	29 d0                	sub    %edx,%eax
    299c:	75 b7                	jne    2955 <submitr+0x599>
    299e:	0f b6 84 24 32 60 00 	movzbl 0x6032(%rsp),%eax
    29a5:	00 
    29a6:	f7 d8                	neg    %eax
    29a8:	eb ab                	jmp    2955 <submitr+0x599>
    29aa:	48 8d b4 24 30 60 00 	lea    0x6030(%rsp),%rsi
    29b1:	00 
    29b2:	48 8d bc 24 30 80 00 	lea    0x8030(%rsp),%rdi
    29b9:	00 
    29ba:	ba 00 20 00 00       	mov    $0x2000,%edx
    29bf:	e8 79 f9 ff ff       	callq  233d <rio_readlineb>
    29c4:	48 85 c0             	test   %rax,%rax
    29c7:	7e 67                	jle    2a30 <submitr+0x674>
    29c9:	8b 94 24 2c 20 00 00 	mov    0x202c(%rsp),%edx
    29d0:	81 fa c8 00 00 00    	cmp    $0xc8,%edx
    29d6:	0f 85 d7 00 00 00    	jne    2ab3 <submitr+0x6f7>
    29dc:	48 8d b4 24 30 60 00 	lea    0x6030(%rsp),%rsi
    29e3:	00 
    29e4:	48 89 df             	mov    %rbx,%rdi
    29e7:	e8 e4 e3 ff ff       	callq  dd0 <strcpy@plt>
    29ec:	89 ef                	mov    %ebp,%edi
    29ee:	e8 4d e4 ff ff       	callq  e40 <close@plt>
    29f3:	0f b6 03             	movzbl (%rbx),%eax
    29f6:	ba 4f 00 00 00       	mov    $0x4f,%edx
    29fb:	29 c2                	sub    %eax,%edx
    29fd:	0f 85 da 00 00 00    	jne    2add <submitr+0x721>
    2a03:	0f b6 4b 01          	movzbl 0x1(%rbx),%ecx
    2a07:	b8 4b 00 00 00       	mov    $0x4b,%eax
    2a0c:	29 c8                	sub    %ecx,%eax
    2a0e:	0f 85 cb 00 00 00    	jne    2adf <submitr+0x723>
    2a14:	0f b6 4b 02          	movzbl 0x2(%rbx),%ecx
    2a18:	b8 0a 00 00 00       	mov    $0xa,%eax
    2a1d:	29 c8                	sub    %ecx,%eax
    2a1f:	0f 85 ba 00 00 00    	jne    2adf <submitr+0x723>
    2a25:	0f b6 43 03          	movzbl 0x3(%rbx),%eax
    2a29:	f7 d8                	neg    %eax
    2a2b:	e9 af 00 00 00       	jmpq   2adf <submitr+0x723>
    2a30:	48 b8 45 72 72 6f 72 	movabs $0x43203a726f727245,%rax
    2a37:	3a 20 43 
    2a3a:	48 89 03             	mov    %rax,(%rbx)
    2a3d:	48 b8 6c 69 65 6e 74 	movabs $0x6e7520746e65696c,%rax
    2a44:	20 75 6e 
    2a47:	48 89 43 08          	mov    %rax,0x8(%rbx)
    2a4b:	48 b8 61 62 6c 65 20 	movabs $0x206f7420656c6261,%rax
    2a52:	74 6f 20 
    2a55:	48 89 43 10          	mov    %rax,0x10(%rbx)
    2a59:	48 b8 72 65 61 64 20 	movabs $0x6174732064616572,%rax
    2a60:	73 74 61 
    2a63:	48 89 43 18          	mov    %rax,0x18(%rbx)
    2a67:	48 b8 74 75 73 20 6d 	movabs $0x7373656d20737574,%rax
    2a6e:	65 73 73 
    2a71:	48 89 43 20          	mov    %rax,0x20(%rbx)
    2a75:	48 b8 61 67 65 20 66 	movabs $0x6d6f726620656761,%rax
    2a7c:	72 6f 6d 
    2a7f:	48 89 43 28          	mov    %rax,0x28(%rbx)
    2a83:	48 b8 20 72 65 73 75 	movabs $0x20746c7573657220,%rax
    2a8a:	6c 74 20 
    2a8d:	48 89 43 30          	mov    %rax,0x30(%rbx)
    2a91:	c7 43 38 73 65 72 76 	movl   $0x76726573,0x38(%rbx)
    2a98:	66 c7 43 3c 65 72    	movw   $0x7265,0x3c(%rbx)
    2a9e:	c6 43 3e 00          	movb   $0x0,0x3e(%rbx)
    2aa2:	89 ef                	mov    %ebp,%edi
    2aa4:	e8 97 e3 ff ff       	callq  e40 <close@plt>
    2aa9:	b8 ff ff ff ff       	mov    $0xffffffff,%eax
    2aae:	e9 90 fe ff ff       	jmpq   2943 <submitr+0x587>
    2ab3:	48 8d 4c 24 20       	lea    0x20(%rsp),%rcx
    2ab8:	48 8d 35 b9 0a 00 00 	lea    0xab9(%rip),%rsi        # 3578 <trans_char+0x78>
    2abf:	48 89 df             	mov    %rbx,%rdi
    2ac2:	b8 00 00 00 00       	mov    $0x0,%eax
    2ac7:	e8 84 e4 ff ff       	callq  f50 <sprintf@plt>
    2acc:	89 ef                	mov    %ebp,%edi
    2ace:	e8 6d e3 ff ff       	callq  e40 <close@plt>
    2ad3:	b8 ff ff ff ff       	mov    $0xffffffff,%eax
    2ad8:	e9 66 fe ff ff       	jmpq   2943 <submitr+0x587>
    2add:	89 d0                	mov    %edx,%eax
    2adf:	f7 d8                	neg    %eax
    2ae1:	0f 84 5c fe ff ff    	je     2943 <submitr+0x587>
    2ae7:	b9 05 00 00 00       	mov    $0x5,%ecx
    2aec:	48 8d 3d cd 0a 00 00 	lea    0xacd(%rip),%rdi        # 35c0 <trans_char+0xc0>
    2af3:	48 89 de             	mov    %rbx,%rsi
    2af6:	f3 a6                	repz cmpsb %es:(%rdi),%ds:(%rsi)
    2af8:	0f 97 c0             	seta   %al
    2afb:	0f 92 c1             	setb   %cl
    2afe:	29 c8                	sub    %ecx,%eax
    2b00:	0f be c0             	movsbl %al,%eax
    2b03:	85 c0                	test   %eax,%eax
    2b05:	0f 84 38 fe ff ff    	je     2943 <submitr+0x587>
    2b0b:	85 d2                	test   %edx,%edx
    2b0d:	75 13                	jne    2b22 <submitr+0x766>
    2b0f:	0f b6 43 01          	movzbl 0x1(%rbx),%eax
    2b13:	ba 4b 00 00 00       	mov    $0x4b,%edx
    2b18:	29 c2                	sub    %eax,%edx
    2b1a:	75 06                	jne    2b22 <submitr+0x766>
    2b1c:	0f b6 53 02          	movzbl 0x2(%rbx),%edx
    2b20:	f7 da                	neg    %edx
    2b22:	89 d0                	mov    %edx,%eax
    2b24:	f7 d8                	neg    %eax
    2b26:	0f 84 17 fe ff ff    	je     2943 <submitr+0x587>
    2b2c:	b8 ff ff ff ff       	mov    $0xffffffff,%eax
    2b31:	e9 0d fe ff ff       	jmpq   2943 <submitr+0x587>

0000000000002b36 <init_timeout>:
    2b36:	85 ff                	test   %edi,%edi
    2b38:	74 20                	je     2b5a <init_timeout+0x24>
    2b3a:	53                   	push   %rbx
    2b3b:	89 fb                	mov    %edi,%ebx
    2b3d:	85 ff                	test   %edi,%edi
    2b3f:	78 1b                	js     2b5c <init_timeout+0x26>
    2b41:	48 8d 35 05 f6 ff ff 	lea    -0x9fb(%rip),%rsi        # 214d <sigalrm_handler>
    2b48:	bf 0e 00 00 00       	mov    $0xe,%edi
    2b4d:	e8 0e e3 ff ff       	callq  e60 <signal@plt>
    2b52:	89 df                	mov    %ebx,%edi
    2b54:	e8 d7 e2 ff ff       	callq  e30 <alarm@plt>
    2b59:	5b                   	pop    %rbx
    2b5a:	f3 c3                	repz retq 
    2b5c:	bb 00 00 00 00       	mov    $0x0,%ebx
    2b61:	eb de                	jmp    2b41 <init_timeout+0xb>

0000000000002b63 <init_driver>:
    2b63:	41 54                	push   %r12
    2b65:	55                   	push   %rbp
    2b66:	53                   	push   %rbx
    2b67:	48 83 ec 10          	sub    $0x10,%rsp
    2b6b:	48 89 fd             	mov    %rdi,%rbp
    2b6e:	be 01 00 00 00       	mov    $0x1,%esi
    2b73:	bf 0d 00 00 00       	mov    $0xd,%edi
    2b78:	e8 e3 e2 ff ff       	callq  e60 <signal@plt>
    2b7d:	be 01 00 00 00       	mov    $0x1,%esi
    2b82:	bf 1d 00 00 00       	mov    $0x1d,%edi
    2b87:	e8 d4 e2 ff ff       	callq  e60 <signal@plt>
    2b8c:	be 01 00 00 00       	mov    $0x1,%esi
    2b91:	bf 1d 00 00 00       	mov    $0x1d,%edi
    2b96:	e8 c5 e2 ff ff       	callq  e60 <signal@plt>
    2b9b:	ba 00 00 00 00       	mov    $0x0,%edx
    2ba0:	be 01 00 00 00       	mov    $0x1,%esi
    2ba5:	bf 02 00 00 00       	mov    $0x2,%edi
    2baa:	e8 d1 e3 ff ff       	callq  f80 <socket@plt>
    2baf:	85 c0                	test   %eax,%eax
    2bb1:	0f 88 80 00 00 00    	js     2c37 <init_driver+0xd4>
    2bb7:	89 c3                	mov    %eax,%ebx
    2bb9:	48 8d 3d 05 0a 00 00 	lea    0xa05(%rip),%rdi        # 35c5 <trans_char+0xc5>
    2bc0:	e8 ab e2 ff ff       	callq  e70 <gethostbyname@plt>
    2bc5:	48 85 c0             	test   %rax,%rax
    2bc8:	0f 84 b5 00 00 00    	je     2c83 <init_driver+0x120>
    2bce:	48 c7 04 24 00 00 00 	movq   $0x0,(%rsp)
    2bd5:	00 
    2bd6:	48 c7 44 24 08 00 00 	movq   $0x0,0x8(%rsp)
    2bdd:	00 00 
    2bdf:	66 c7 04 24 02 00    	movw   $0x2,(%rsp)
    2be5:	48 8b 48 18          	mov    0x18(%rax),%rcx
    2be9:	48 63 50 14          	movslq 0x14(%rax),%rdx
    2bed:	48 8d 74 24 04       	lea    0x4(%rsp),%rsi
    2bf2:	48 8b 39             	mov    (%rcx),%rdi
    2bf5:	e8 06 e3 ff ff       	callq  f00 <bcopy@plt>
    2bfa:	66 c7 44 24 02 3c 9a 	movw   $0x9a3c,0x2(%rsp)
    2c01:	ba 10 00 00 00       	mov    $0x10,%edx
    2c06:	48 89 e6             	mov    %rsp,%rsi
    2c09:	89 df                	mov    %ebx,%edi
    2c0b:	e8 60 e3 ff ff       	callq  f70 <connect@plt>
    2c10:	85 c0                	test   %eax,%eax
    2c12:	0f 88 d3 00 00 00    	js     2ceb <init_driver+0x188>
    2c18:	89 df                	mov    %ebx,%edi
    2c1a:	e8 21 e2 ff ff       	callq  e40 <close@plt>
    2c1f:	66 c7 45 00 4f 4b    	movw   $0x4b4f,0x0(%rbp)
    2c25:	c6 45 02 00          	movb   $0x0,0x2(%rbp)
    2c29:	b8 00 00 00 00       	mov    $0x0,%eax
    2c2e:	48 83 c4 10          	add    $0x10,%rsp
    2c32:	5b                   	pop    %rbx
    2c33:	5d                   	pop    %rbp
    2c34:	41 5c                	pop    %r12
    2c36:	c3                   	retq   
    2c37:	48 b8 45 72 72 6f 72 	movabs $0x43203a726f727245,%rax
    2c3e:	3a 20 43 
    2c41:	48 89 45 00          	mov    %rax,0x0(%rbp)
    2c45:	48 b8 6c 69 65 6e 74 	movabs $0x6e7520746e65696c,%rax
    2c4c:	20 75 6e 
    2c4f:	48 89 45 08          	mov    %rax,0x8(%rbp)
    2c53:	48 b8 61 62 6c 65 20 	movabs $0x206f7420656c6261,%rax
    2c5a:	74 6f 20 
    2c5d:	48 89 45 10          	mov    %rax,0x10(%rbp)
    2c61:	48 b8 63 72 65 61 74 	movabs $0x7320657461657263,%rax
    2c68:	65 20 73 
    2c6b:	48 89 45 18          	mov    %rax,0x18(%rbp)
    2c6f:	c7 45 20 6f 63 6b 65 	movl   $0x656b636f,0x20(%rbp)
    2c76:	66 c7 45 24 74 00    	movw   $0x74,0x24(%rbp)
    2c7c:	b8 ff ff ff ff       	mov    $0xffffffff,%eax
    2c81:	eb ab                	jmp    2c2e <init_driver+0xcb>
    2c83:	48 b8 45 72 72 6f 72 	movabs $0x44203a726f727245,%rax
    2c8a:	3a 20 44 
    2c8d:	48 89 45 00          	mov    %rax,0x0(%rbp)
    2c91:	48 b8 4e 53 20 69 73 	movabs $0x6e7520736920534e,%rax
    2c98:	20 75 6e 
    2c9b:	48 89 45 08          	mov    %rax,0x8(%rbp)
    2c9f:	48 b8 61 62 6c 65 20 	movabs $0x206f7420656c6261,%rax
    2ca6:	74 6f 20 
    2ca9:	48 89 45 10          	mov    %rax,0x10(%rbp)
    2cad:	48 b8 72 65 73 6f 6c 	movabs $0x2065766c6f736572,%rax
    2cb4:	76 65 20 
    2cb7:	48 89 45 18          	mov    %rax,0x18(%rbp)
    2cbb:	48 b8 73 65 72 76 65 	movabs $0x6120726576726573,%rax
    2cc2:	72 20 61 
    2cc5:	48 89 45 20          	mov    %rax,0x20(%rbp)
    2cc9:	c7 45 28 64 64 72 65 	movl   $0x65726464,0x28(%rbp)
    2cd0:	66 c7 45 2c 73 73    	movw   $0x7373,0x2c(%rbp)
    2cd6:	c6 45 2e 00          	movb   $0x0,0x2e(%rbp)
    2cda:	89 df                	mov    %ebx,%edi
    2cdc:	e8 5f e1 ff ff       	callq  e40 <close@plt>
    2ce1:	b8 ff ff ff ff       	mov    $0xffffffff,%eax
    2ce6:	e9 43 ff ff ff       	jmpq   2c2e <init_driver+0xcb>
    2ceb:	48 b8 45 72 72 6f 72 	movabs $0x55203a726f727245,%rax
    2cf2:	3a 20 55 
    2cf5:	48 89 45 00          	mov    %rax,0x0(%rbp)
    2cf9:	48 b8 6e 61 62 6c 65 	movabs $0x6f7420656c62616e,%rax
    2d00:	20 74 6f 
    2d03:	48 89 45 08          	mov    %rax,0x8(%rbp)
    2d07:	48 b8 20 63 6f 6e 6e 	movabs $0x7463656e6e6f6320,%rax
    2d0e:	65 63 74 
    2d11:	48 89 45 10          	mov    %rax,0x10(%rbp)
    2d15:	48 b8 20 74 6f 20 73 	movabs $0x76726573206f7420,%rax
    2d1c:	65 72 76 
    2d1f:	48 89 45 18          	mov    %rax,0x18(%rbp)
    2d23:	66 c7 45 20 65 72    	movw   $0x7265,0x20(%rbp)
    2d29:	c6 45 22 00          	movb   $0x0,0x22(%rbp)
    2d2d:	89 df                	mov    %ebx,%edi
    2d2f:	e8 0c e1 ff ff       	callq  e40 <close@plt>
    2d34:	b8 ff ff ff ff       	mov    $0xffffffff,%eax
    2d39:	e9 f0 fe ff ff       	jmpq   2c2e <init_driver+0xcb>

0000000000002d3e <driver_post>:
    2d3e:	53                   	push   %rbx
    2d3f:	4c 89 cb             	mov    %r9,%rbx
    2d42:	45 85 c0             	test   %r8d,%r8d
    2d45:	75 18                	jne    2d5f <driver_post+0x21>
    2d47:	48 85 ff             	test   %rdi,%rdi
    2d4a:	74 05                	je     2d51 <driver_post+0x13>
    2d4c:	80 3f 00             	cmpb   $0x0,(%rdi)
    2d4f:	75 32                	jne    2d83 <driver_post+0x45>
    2d51:	66 c7 03 4f 4b       	movw   $0x4b4f,(%rbx)
    2d56:	c6 43 02 00          	movb   $0x0,0x2(%rbx)
    2d5a:	44 89 c0             	mov    %r8d,%eax
    2d5d:	5b                   	pop    %rbx
    2d5e:	c3                   	retq   
    2d5f:	48 89 ce             	mov    %rcx,%rsi
    2d62:	48 8d 3d 6a 08 00 00 	lea    0x86a(%rip),%rdi        # 35d3 <trans_char+0xd3>
    2d69:	b8 00 00 00 00       	mov    $0x0,%eax
    2d6e:	e8 9d e0 ff ff       	callq  e10 <printf@plt>
    2d73:	66 c7 03 4f 4b       	movw   $0x4b4f,(%rbx)
    2d78:	c6 43 02 00          	movb   $0x0,0x2(%rbx)
    2d7c:	b8 00 00 00 00       	mov    $0x0,%eax
    2d81:	eb da                	jmp    2d5d <driver_post+0x1f>
    2d83:	48 83 ec 08          	sub    $0x8,%rsp
    2d87:	41 51                	push   %r9
    2d89:	49 89 c9             	mov    %rcx,%r9
    2d8c:	49 89 d0             	mov    %rdx,%r8
    2d8f:	48 89 f9             	mov    %rdi,%rcx
    2d92:	48 89 f2             	mov    %rsi,%rdx
    2d95:	be 9a 3c 00 00       	mov    $0x3c9a,%esi
    2d9a:	48 8d 3d 24 08 00 00 	lea    0x824(%rip),%rdi        # 35c5 <trans_char+0xc5>
    2da1:	e8 16 f6 ff ff       	callq  23bc <submitr>
    2da6:	48 83 c4 10          	add    $0x10,%rsp
    2daa:	eb b1                	jmp    2d5d <driver_post+0x1f>

0000000000002dac <check>:
    2dac:	89 f8                	mov    %edi,%eax
    2dae:	c1 e8 1c             	shr    $0x1c,%eax
    2db1:	85 c0                	test   %eax,%eax
    2db3:	74 1d                	je     2dd2 <check+0x26>
    2db5:	b9 00 00 00 00       	mov    $0x0,%ecx
    2dba:	83 f9 1f             	cmp    $0x1f,%ecx
    2dbd:	7f 0d                	jg     2dcc <check+0x20>
    2dbf:	89 f8                	mov    %edi,%eax
    2dc1:	d3 e8                	shr    %cl,%eax
    2dc3:	3c 0a                	cmp    $0xa,%al
    2dc5:	74 11                	je     2dd8 <check+0x2c>
    2dc7:	83 c1 08             	add    $0x8,%ecx
    2dca:	eb ee                	jmp    2dba <check+0xe>
    2dcc:	b8 01 00 00 00       	mov    $0x1,%eax
    2dd1:	c3                   	retq   
    2dd2:	b8 00 00 00 00       	mov    $0x0,%eax
    2dd7:	c3                   	retq   
    2dd8:	b8 00 00 00 00       	mov    $0x0,%eax
    2ddd:	c3                   	retq   

0000000000002dde <gencookie>:
    2dde:	53                   	push   %rbx
    2ddf:	83 c7 01             	add    $0x1,%edi
    2de2:	e8 c9 df ff ff       	callq  db0 <srandom@plt>
    2de7:	e8 d4 e0 ff ff       	callq  ec0 <random@plt>
    2dec:	89 c3                	mov    %eax,%ebx
    2dee:	89 c7                	mov    %eax,%edi
    2df0:	e8 b7 ff ff ff       	callq  2dac <check>
    2df5:	85 c0                	test   %eax,%eax
    2df7:	74 ee                	je     2de7 <gencookie+0x9>
    2df9:	89 d8                	mov    %ebx,%eax
    2dfb:	5b                   	pop    %rbx
    2dfc:	c3                   	retq   
    2dfd:	0f 1f 00             	nopl   (%rax)

0000000000002e00 <__libc_csu_init>:
    2e00:	41 57                	push   %r15
    2e02:	41 56                	push   %r14
    2e04:	41 89 ff             	mov    %edi,%r15d
    2e07:	41 55                	push   %r13
    2e09:	41 54                	push   %r12
    2e0b:	4c 8d 25 c6 0f 20 00 	lea    0x200fc6(%rip),%r12        # 203dd8 <__frame_dummy_init_array_entry>
    2e12:	55                   	push   %rbp
    2e13:	48 8d 2d c6 0f 20 00 	lea    0x200fc6(%rip),%rbp        # 203de0 <__init_array_end>
    2e1a:	53                   	push   %rbx
    2e1b:	49 89 f6             	mov    %rsi,%r14
    2e1e:	49 89 d5             	mov    %rdx,%r13
    2e21:	4c 29 e5             	sub    %r12,%rbp
    2e24:	48 83 ec 08          	sub    $0x8,%rsp
    2e28:	48 c1 fd 03          	sar    $0x3,%rbp
    2e2c:	e8 2f df ff ff       	callq  d60 <_init>
    2e31:	48 85 ed             	test   %rbp,%rbp
    2e34:	74 20                	je     2e56 <__libc_csu_init+0x56>
    2e36:	31 db                	xor    %ebx,%ebx
    2e38:	0f 1f 84 00 00 00 00 	nopl   0x0(%rax,%rax,1)
    2e3f:	00 
    2e40:	4c 89 ea             	mov    %r13,%rdx
    2e43:	4c 89 f6             	mov    %r14,%rsi
    2e46:	44 89 ff             	mov    %r15d,%edi
    2e49:	41 ff 14 dc          	callq  *(%r12,%rbx,8)
    2e4d:	48 83 c3 01          	add    $0x1,%rbx
    2e51:	48 39 dd             	cmp    %rbx,%rbp
    2e54:	75 ea                	jne    2e40 <__libc_csu_init+0x40>
    2e56:	48 83 c4 08          	add    $0x8,%rsp
    2e5a:	5b                   	pop    %rbx
    2e5b:	5d                   	pop    %rbp
    2e5c:	41 5c                	pop    %r12
    2e5e:	41 5d                	pop    %r13
    2e60:	41 5e                	pop    %r14
    2e62:	41 5f                	pop    %r15
    2e64:	c3                   	retq   
    2e65:	90                   	nop
    2e66:	66 2e 0f 1f 84 00 00 	nopw   %cs:0x0(%rax,%rax,1)
    2e6d:	00 00 00 

0000000000002e70 <__libc_csu_fini>:
    2e70:	f3 c3                	repz retq 

Disassembly of section .fini:

0000000000002e74 <_fini>:
    2e74:	48 83 ec 08          	sub    $0x8,%rsp
    2e78:	48 83 c4 08          	add    $0x8,%rsp
    2e7c:	c3                   	retq   
