
rtarget:     file format elf64-x86-64


Disassembly of section .init:

0000000000000d60 <_init>:
 d60:	48 83 ec 08          	sub    $0x8,%rsp
 d64:	48 8b 05 75 42 20 00 	mov    0x204275(%rip),%rax        # 204fe0 <__gmon_start__>
 d6b:	48 85 c0             	test   %rax,%rax
 d6e:	74 02                	je     d72 <_init+0x12>
 d70:	ff d0                	callq  *%rax
 d72:	48 83 c4 08          	add    $0x8,%rsp
 d76:	c3                   	retq   

Disassembly of section .plt:

0000000000000d80 <.plt>:
 d80:	ff 35 82 42 20 00    	pushq  0x204282(%rip)        # 205008 <_GLOBAL_OFFSET_TABLE_+0x8>
 d86:	ff 25 84 42 20 00    	jmpq   *0x204284(%rip)        # 205010 <_GLOBAL_OFFSET_TABLE_+0x10>
 d8c:	0f 1f 40 00          	nopl   0x0(%rax)

0000000000000d90 <strcasecmp@plt>:
 d90:	ff 25 82 42 20 00    	jmpq   *0x204282(%rip)        # 205018 <strcasecmp@GLIBC_2.2.5>
 d96:	68 00 00 00 00       	pushq  $0x0
 d9b:	e9 e0 ff ff ff       	jmpq   d80 <.plt>

0000000000000da0 <__errno_location@plt>:
 da0:	ff 25 7a 42 20 00    	jmpq   *0x20427a(%rip)        # 205020 <__errno_location@GLIBC_2.2.5>
 da6:	68 01 00 00 00       	pushq  $0x1
 dab:	e9 d0 ff ff ff       	jmpq   d80 <.plt>

0000000000000db0 <srandom@plt>:
 db0:	ff 25 72 42 20 00    	jmpq   *0x204272(%rip)        # 205028 <srandom@GLIBC_2.2.5>
 db6:	68 02 00 00 00       	pushq  $0x2
 dbb:	e9 c0 ff ff ff       	jmpq   d80 <.plt>

0000000000000dc0 <strncmp@plt>:
 dc0:	ff 25 6a 42 20 00    	jmpq   *0x20426a(%rip)        # 205030 <strncmp@GLIBC_2.2.5>
 dc6:	68 03 00 00 00       	pushq  $0x3
 dcb:	e9 b0 ff ff ff       	jmpq   d80 <.plt>

0000000000000dd0 <strcpy@plt>:
 dd0:	ff 25 62 42 20 00    	jmpq   *0x204262(%rip)        # 205038 <strcpy@GLIBC_2.2.5>
 dd6:	68 04 00 00 00       	pushq  $0x4
 ddb:	e9 a0 ff ff ff       	jmpq   d80 <.plt>

0000000000000de0 <puts@plt>:
 de0:	ff 25 5a 42 20 00    	jmpq   *0x20425a(%rip)        # 205040 <puts@GLIBC_2.2.5>
 de6:	68 05 00 00 00       	pushq  $0x5
 deb:	e9 90 ff ff ff       	jmpq   d80 <.plt>

0000000000000df0 <write@plt>:
 df0:	ff 25 52 42 20 00    	jmpq   *0x204252(%rip)        # 205048 <write@GLIBC_2.2.5>
 df6:	68 06 00 00 00       	pushq  $0x6
 dfb:	e9 80 ff ff ff       	jmpq   d80 <.plt>

0000000000000e00 <mmap@plt>:
 e00:	ff 25 4a 42 20 00    	jmpq   *0x20424a(%rip)        # 205050 <mmap@GLIBC_2.2.5>
 e06:	68 07 00 00 00       	pushq  $0x7
 e0b:	e9 70 ff ff ff       	jmpq   d80 <.plt>

0000000000000e10 <printf@plt>:
 e10:	ff 25 42 42 20 00    	jmpq   *0x204242(%rip)        # 205058 <printf@GLIBC_2.2.5>
 e16:	68 08 00 00 00       	pushq  $0x8
 e1b:	e9 60 ff ff ff       	jmpq   d80 <.plt>

0000000000000e20 <memset@plt>:
 e20:	ff 25 3a 42 20 00    	jmpq   *0x20423a(%rip)        # 205060 <memset@GLIBC_2.2.5>
 e26:	68 09 00 00 00       	pushq  $0x9
 e2b:	e9 50 ff ff ff       	jmpq   d80 <.plt>

0000000000000e30 <alarm@plt>:
 e30:	ff 25 32 42 20 00    	jmpq   *0x204232(%rip)        # 205068 <alarm@GLIBC_2.2.5>
 e36:	68 0a 00 00 00       	pushq  $0xa
 e3b:	e9 40 ff ff ff       	jmpq   d80 <.plt>

0000000000000e40 <close@plt>:
 e40:	ff 25 2a 42 20 00    	jmpq   *0x20422a(%rip)        # 205070 <close@GLIBC_2.2.5>
 e46:	68 0b 00 00 00       	pushq  $0xb
 e4b:	e9 30 ff ff ff       	jmpq   d80 <.plt>

0000000000000e50 <read@plt>:
 e50:	ff 25 22 42 20 00    	jmpq   *0x204222(%rip)        # 205078 <read@GLIBC_2.2.5>
 e56:	68 0c 00 00 00       	pushq  $0xc
 e5b:	e9 20 ff ff ff       	jmpq   d80 <.plt>

0000000000000e60 <signal@plt>:
 e60:	ff 25 1a 42 20 00    	jmpq   *0x20421a(%rip)        # 205080 <signal@GLIBC_2.2.5>
 e66:	68 0d 00 00 00       	pushq  $0xd
 e6b:	e9 10 ff ff ff       	jmpq   d80 <.plt>

0000000000000e70 <gethostbyname@plt>:
 e70:	ff 25 12 42 20 00    	jmpq   *0x204212(%rip)        # 205088 <gethostbyname@GLIBC_2.2.5>
 e76:	68 0e 00 00 00       	pushq  $0xe
 e7b:	e9 00 ff ff ff       	jmpq   d80 <.plt>

0000000000000e80 <fprintf@plt>:
 e80:	ff 25 0a 42 20 00    	jmpq   *0x20420a(%rip)        # 205090 <fprintf@GLIBC_2.2.5>
 e86:	68 0f 00 00 00       	pushq  $0xf
 e8b:	e9 f0 fe ff ff       	jmpq   d80 <.plt>

0000000000000e90 <strtol@plt>:
 e90:	ff 25 02 42 20 00    	jmpq   *0x204202(%rip)        # 205098 <strtol@GLIBC_2.2.5>
 e96:	68 10 00 00 00       	pushq  $0x10
 e9b:	e9 e0 fe ff ff       	jmpq   d80 <.plt>

0000000000000ea0 <memcpy@plt>:
 ea0:	ff 25 fa 41 20 00    	jmpq   *0x2041fa(%rip)        # 2050a0 <memcpy@GLIBC_2.14>
 ea6:	68 11 00 00 00       	pushq  $0x11
 eab:	e9 d0 fe ff ff       	jmpq   d80 <.plt>

0000000000000eb0 <time@plt>:
 eb0:	ff 25 f2 41 20 00    	jmpq   *0x2041f2(%rip)        # 2050a8 <time@GLIBC_2.2.5>
 eb6:	68 12 00 00 00       	pushq  $0x12
 ebb:	e9 c0 fe ff ff       	jmpq   d80 <.plt>

0000000000000ec0 <random@plt>:
 ec0:	ff 25 ea 41 20 00    	jmpq   *0x2041ea(%rip)        # 2050b0 <random@GLIBC_2.2.5>
 ec6:	68 13 00 00 00       	pushq  $0x13
 ecb:	e9 b0 fe ff ff       	jmpq   d80 <.plt>

0000000000000ed0 <_IO_getc@plt>:
 ed0:	ff 25 e2 41 20 00    	jmpq   *0x2041e2(%rip)        # 2050b8 <_IO_getc@GLIBC_2.2.5>
 ed6:	68 14 00 00 00       	pushq  $0x14
 edb:	e9 a0 fe ff ff       	jmpq   d80 <.plt>

0000000000000ee0 <__isoc99_sscanf@plt>:
 ee0:	ff 25 da 41 20 00    	jmpq   *0x2041da(%rip)        # 2050c0 <__isoc99_sscanf@GLIBC_2.7>
 ee6:	68 15 00 00 00       	pushq  $0x15
 eeb:	e9 90 fe ff ff       	jmpq   d80 <.plt>

0000000000000ef0 <munmap@plt>:
 ef0:	ff 25 d2 41 20 00    	jmpq   *0x2041d2(%rip)        # 2050c8 <munmap@GLIBC_2.2.5>
 ef6:	68 16 00 00 00       	pushq  $0x16
 efb:	e9 80 fe ff ff       	jmpq   d80 <.plt>

0000000000000f00 <bcopy@plt>:
 f00:	ff 25 ca 41 20 00    	jmpq   *0x2041ca(%rip)        # 2050d0 <bcopy@GLIBC_2.2.5>
 f06:	68 17 00 00 00       	pushq  $0x17
 f0b:	e9 70 fe ff ff       	jmpq   d80 <.plt>

0000000000000f10 <fopen@plt>:
 f10:	ff 25 c2 41 20 00    	jmpq   *0x2041c2(%rip)        # 2050d8 <fopen@GLIBC_2.2.5>
 f16:	68 18 00 00 00       	pushq  $0x18
 f1b:	e9 60 fe ff ff       	jmpq   d80 <.plt>

0000000000000f20 <getopt@plt>:
 f20:	ff 25 ba 41 20 00    	jmpq   *0x2041ba(%rip)        # 2050e0 <getopt@GLIBC_2.2.5>
 f26:	68 19 00 00 00       	pushq  $0x19
 f2b:	e9 50 fe ff ff       	jmpq   d80 <.plt>

0000000000000f30 <strtoul@plt>:
 f30:	ff 25 b2 41 20 00    	jmpq   *0x2041b2(%rip)        # 2050e8 <strtoul@GLIBC_2.2.5>
 f36:	68 1a 00 00 00       	pushq  $0x1a
 f3b:	e9 40 fe ff ff       	jmpq   d80 <.plt>

0000000000000f40 <gethostname@plt>:
 f40:	ff 25 aa 41 20 00    	jmpq   *0x2041aa(%rip)        # 2050f0 <gethostname@GLIBC_2.2.5>
 f46:	68 1b 00 00 00       	pushq  $0x1b
 f4b:	e9 30 fe ff ff       	jmpq   d80 <.plt>

0000000000000f50 <sprintf@plt>:
 f50:	ff 25 a2 41 20 00    	jmpq   *0x2041a2(%rip)        # 2050f8 <sprintf@GLIBC_2.2.5>
 f56:	68 1c 00 00 00       	pushq  $0x1c
 f5b:	e9 20 fe ff ff       	jmpq   d80 <.plt>

0000000000000f60 <exit@plt>:
 f60:	ff 25 9a 41 20 00    	jmpq   *0x20419a(%rip)        # 205100 <exit@GLIBC_2.2.5>
 f66:	68 1d 00 00 00       	pushq  $0x1d
 f6b:	e9 10 fe ff ff       	jmpq   d80 <.plt>

0000000000000f70 <connect@plt>:
 f70:	ff 25 92 41 20 00    	jmpq   *0x204192(%rip)        # 205108 <connect@GLIBC_2.2.5>
 f76:	68 1e 00 00 00       	pushq  $0x1e
 f7b:	e9 00 fe ff ff       	jmpq   d80 <.plt>

0000000000000f80 <socket@plt>:
 f80:	ff 25 8a 41 20 00    	jmpq   *0x20418a(%rip)        # 205110 <socket@GLIBC_2.2.5>
 f86:	68 1f 00 00 00       	pushq  $0x1f
 f8b:	e9 f0 fd ff ff       	jmpq   d80 <.plt>

Disassembly of section .plt.got:

0000000000000f90 <__cxa_finalize@plt>:
 f90:	ff 25 62 40 20 00    	jmpq   *0x204062(%rip)        # 204ff8 <__cxa_finalize@GLIBC_2.2.5>
 f96:	66 90                	xchg   %ax,%ax

Disassembly of section .text:

0000000000000fa0 <_start>:
     fa0:	31 ed                	xor    %ebp,%ebp
     fa2:	49 89 d1             	mov    %rdx,%r9
     fa5:	5e                   	pop    %rsi
     fa6:	48 89 e2             	mov    %rsp,%rdx
     fa9:	48 83 e4 f0          	and    $0xfffffffffffffff0,%rsp
     fad:	50                   	push   %rax
     fae:	54                   	push   %rsp
     faf:	4c 8d 05 da 1f 00 00 	lea    0x1fda(%rip),%r8        # 2f90 <__libc_csu_fini>
     fb6:	48 8d 0d 63 1f 00 00 	lea    0x1f63(%rip),%rcx        # 2f20 <__libc_csu_init>
     fbd:	48 8d 3d c3 02 00 00 	lea    0x2c3(%rip),%rdi        # 1287 <main>
     fc4:	ff 15 0e 40 20 00    	callq  *0x20400e(%rip)        # 204fd8 <__libc_start_main@GLIBC_2.2.5>
     fca:	f4                   	hlt    
     fcb:	0f 1f 44 00 00       	nopl   0x0(%rax,%rax,1)

0000000000000fd0 <deregister_tm_clones>:
     fd0:	48 8d 3d 81 41 20 00 	lea    0x204181(%rip),%rdi        # 205158 <__TMC_END__>
     fd7:	48 8d 05 81 41 20 00 	lea    0x204181(%rip),%rax        # 20515f <__TMC_END__+0x7>
     fde:	55                   	push   %rbp
     fdf:	48 29 f8             	sub    %rdi,%rax
     fe2:	48 89 e5             	mov    %rsp,%rbp
     fe5:	48 83 f8 0e          	cmp    $0xe,%rax
     fe9:	76 15                	jbe    1000 <deregister_tm_clones+0x30>
     feb:	48 8b 05 de 3f 20 00 	mov    0x203fde(%rip),%rax        # 204fd0 <_ITM_deregisterTMCloneTable>
     ff2:	48 85 c0             	test   %rax,%rax
     ff5:	74 09                	je     1000 <deregister_tm_clones+0x30>
     ff7:	5d                   	pop    %rbp
     ff8:	ff e0                	jmpq   *%rax
     ffa:	66 0f 1f 44 00 00    	nopw   0x0(%rax,%rax,1)
    1000:	5d                   	pop    %rbp
    1001:	c3                   	retq   
    1002:	0f 1f 40 00          	nopl   0x0(%rax)
    1006:	66 2e 0f 1f 84 00 00 	nopw   %cs:0x0(%rax,%rax,1)
    100d:	00 00 00 

0000000000001010 <register_tm_clones>:
    1010:	48 8d 3d 41 41 20 00 	lea    0x204141(%rip),%rdi        # 205158 <__TMC_END__>
    1017:	48 8d 35 3a 41 20 00 	lea    0x20413a(%rip),%rsi        # 205158 <__TMC_END__>
    101e:	55                   	push   %rbp
    101f:	48 29 fe             	sub    %rdi,%rsi
    1022:	48 89 e5             	mov    %rsp,%rbp
    1025:	48 c1 fe 03          	sar    $0x3,%rsi
    1029:	48 89 f0             	mov    %rsi,%rax
    102c:	48 c1 e8 3f          	shr    $0x3f,%rax
    1030:	48 01 c6             	add    %rax,%rsi
    1033:	48 d1 fe             	sar    %rsi
    1036:	74 18                	je     1050 <register_tm_clones+0x40>
    1038:	48 8b 05 b1 3f 20 00 	mov    0x203fb1(%rip),%rax        # 204ff0 <_ITM_registerTMCloneTable>
    103f:	48 85 c0             	test   %rax,%rax
    1042:	74 0c                	je     1050 <register_tm_clones+0x40>
    1044:	5d                   	pop    %rbp
    1045:	ff e0                	jmpq   *%rax
    1047:	66 0f 1f 84 00 00 00 	nopw   0x0(%rax,%rax,1)
    104e:	00 00 
    1050:	5d                   	pop    %rbp
    1051:	c3                   	retq   
    1052:	0f 1f 40 00          	nopl   0x0(%rax)
    1056:	66 2e 0f 1f 84 00 00 	nopw   %cs:0x0(%rax,%rax,1)
    105d:	00 00 00 

0000000000001060 <__do_global_dtors_aux>:
    1060:	80 3d 21 41 20 00 00 	cmpb   $0x0,0x204121(%rip)        # 205188 <completed.6972>
    1067:	75 27                	jne    1090 <__do_global_dtors_aux+0x30>
    1069:	48 83 3d 87 3f 20 00 	cmpq   $0x0,0x203f87(%rip)        # 204ff8 <__cxa_finalize@GLIBC_2.2.5>
    1070:	00 
    1071:	55                   	push   %rbp
    1072:	48 89 e5             	mov    %rsp,%rbp
    1075:	74 0c                	je     1083 <__do_global_dtors_aux+0x23>
    1077:	48 8b 3d a2 40 20 00 	mov    0x2040a2(%rip),%rdi        # 205120 <__dso_handle>
    107e:	e8 0d ff ff ff       	callq  f90 <__cxa_finalize@plt>
    1083:	e8 48 ff ff ff       	callq  fd0 <deregister_tm_clones>
    1088:	5d                   	pop    %rbp
    1089:	c6 05 f8 40 20 00 01 	movb   $0x1,0x2040f8(%rip)        # 205188 <completed.6972>
    1090:	f3 c3                	repz retq 
    1092:	0f 1f 40 00          	nopl   0x0(%rax)
    1096:	66 2e 0f 1f 84 00 00 	nopw   %cs:0x0(%rax,%rax,1)
    109d:	00 00 00 

00000000000010a0 <frame_dummy>:
    10a0:	48 8d 3d 41 3d 20 00 	lea    0x203d41(%rip),%rdi        # 204de8 <__JCR_END__>
    10a7:	48 83 3f 00          	cmpq   $0x0,(%rdi)
    10ab:	75 0b                	jne    10b8 <frame_dummy+0x18>
    10ad:	e9 5e ff ff ff       	jmpq   1010 <register_tm_clones>
    10b2:	66 0f 1f 44 00 00    	nopw   0x0(%rax,%rax,1)
    10b8:	48 8b 05 29 3f 20 00 	mov    0x203f29(%rip),%rax        # 204fe8 <_Jv_RegisterClasses>
    10bf:	48 85 c0             	test   %rax,%rax
    10c2:	74 e9                	je     10ad <frame_dummy+0xd>
    10c4:	55                   	push   %rbp
    10c5:	48 89 e5             	mov    %rsp,%rbp
    10c8:	ff d0                	callq  *%rax
    10ca:	5d                   	pop    %rbp
    10cb:	e9 40 ff ff ff       	jmpq   1010 <register_tm_clones>

00000000000010d0 <usage>:
    10d0:	48 83 ec 08          	sub    $0x8,%rsp
    10d4:	48 89 fe             	mov    %rdi,%rsi
    10d7:	83 3d 0a 44 20 00 00 	cmpl   $0x0,0x20440a(%rip)        # 2054e8 <is_checker>
    10de:	74 4b                	je     112b <usage+0x5b>
    10e0:	48 8d 3d c1 1e 00 00 	lea    0x1ec1(%rip),%rdi        # 2fa8 <_IO_stdin_used+0x8>
    10e7:	b8 00 00 00 00       	mov    $0x0,%eax
    10ec:	e8 1f fd ff ff       	callq  e10 <printf@plt>
    10f1:	48 8d 3d e8 1e 00 00 	lea    0x1ee8(%rip),%rdi        # 2fe0 <_IO_stdin_used+0x40>
    10f8:	e8 e3 fc ff ff       	callq  de0 <puts@plt>
    10fd:	48 8d 3d 14 20 00 00 	lea    0x2014(%rip),%rdi        # 3118 <_IO_stdin_used+0x178>
    1104:	e8 d7 fc ff ff       	callq  de0 <puts@plt>
    1109:	48 8d 3d f8 1e 00 00 	lea    0x1ef8(%rip),%rdi        # 3008 <_IO_stdin_used+0x68>
    1110:	e8 cb fc ff ff       	callq  de0 <puts@plt>
    1115:	48 8d 3d 16 20 00 00 	lea    0x2016(%rip),%rdi        # 3132 <_IO_stdin_used+0x192>
    111c:	e8 bf fc ff ff       	callq  de0 <puts@plt>
    1121:	bf 00 00 00 00       	mov    $0x0,%edi
    1126:	e8 35 fe ff ff       	callq  f60 <exit@plt>
    112b:	48 8d 3d 1c 20 00 00 	lea    0x201c(%rip),%rdi        # 314e <_IO_stdin_used+0x1ae>
    1132:	b8 00 00 00 00       	mov    $0x0,%eax
    1137:	e8 d4 fc ff ff       	callq  e10 <printf@plt>
    113c:	48 8d 3d ed 1e 00 00 	lea    0x1eed(%rip),%rdi        # 3030 <_IO_stdin_used+0x90>
    1143:	e8 98 fc ff ff       	callq  de0 <puts@plt>
    1148:	48 8d 3d 09 1f 00 00 	lea    0x1f09(%rip),%rdi        # 3058 <_IO_stdin_used+0xb8>
    114f:	e8 8c fc ff ff       	callq  de0 <puts@plt>
    1154:	48 8d 3d 11 20 00 00 	lea    0x2011(%rip),%rdi        # 316c <_IO_stdin_used+0x1cc>
    115b:	e8 80 fc ff ff       	callq  de0 <puts@plt>
    1160:	eb bf                	jmp    1121 <usage+0x51>

0000000000001162 <initialize_target>:
    1162:	55                   	push   %rbp
    1163:	53                   	push   %rbx
    1164:	48 81 ec 08 21 00 00 	sub    $0x2108,%rsp
    116b:	89 f5                	mov    %esi,%ebp
    116d:	89 3d 65 43 20 00    	mov    %edi,0x204365(%rip)        # 2054d8 <check_level>
    1173:	8b 3d af 3f 20 00    	mov    0x203faf(%rip),%edi        # 205128 <target_id>
    1179:	e8 7f 1d 00 00       	callq  2efd <gencookie>
    117e:	89 05 60 43 20 00    	mov    %eax,0x204360(%rip)        # 2054e4 <cookie>
    1184:	89 c7                	mov    %eax,%edi
    1186:	e8 72 1d 00 00       	callq  2efd <gencookie>
    118b:	89 05 4f 43 20 00    	mov    %eax,0x20434f(%rip)        # 2054e0 <authkey>
    1191:	8b 05 91 3f 20 00    	mov    0x203f91(%rip),%eax        # 205128 <target_id>
    1197:	8d 78 01             	lea    0x1(%rax),%edi
    119a:	e8 11 fc ff ff       	callq  db0 <srandom@plt>
    119f:	e8 1c fd ff ff       	callq  ec0 <random@plt>
    11a4:	89 c7                	mov    %eax,%edi
    11a6:	e8 c3 02 00 00       	callq  146e <scramble>
    11ab:	89 c3                	mov    %eax,%ebx
    11ad:	85 ed                	test   %ebp,%ebp
    11af:	75 3d                	jne    11ee <initialize_target+0x8c>
    11b1:	b8 00 00 00 00       	mov    $0x0,%eax
    11b6:	01 d8                	add    %ebx,%eax
    11b8:	0f b7 c0             	movzwl %ax,%eax
    11bb:	8d 04 c5 00 01 00 00 	lea    0x100(,%rax,8),%eax
    11c2:	89 c0                	mov    %eax,%eax
    11c4:	48 89 05 7d 3f 20 00 	mov    %rax,0x203f7d(%rip)        # 205148 <buf_offset>
    11cb:	c6 05 36 4f 20 00 72 	movb   $0x72,0x204f36(%rip)        # 206108 <target_prefix>
    11d2:	83 3d 77 3f 20 00 00 	cmpl   $0x0,0x203f77(%rip)        # 205150 <notify>
    11d9:	74 09                	je     11e4 <initialize_target+0x82>
    11db:	83 3d 06 43 20 00 00 	cmpl   $0x0,0x204306(%rip)        # 2054e8 <is_checker>
    11e2:	74 22                	je     1206 <initialize_target+0xa4>
    11e4:	48 81 c4 08 21 00 00 	add    $0x2108,%rsp
    11eb:	5b                   	pop    %rbx
    11ec:	5d                   	pop    %rbp
    11ed:	c3                   	retq   
    11ee:	bf 00 00 00 00       	mov    $0x0,%edi
    11f3:	e8 b8 fc ff ff       	callq  eb0 <time@plt>
    11f8:	89 c7                	mov    %eax,%edi
    11fa:	e8 b1 fb ff ff       	callq  db0 <srandom@plt>
    11ff:	e8 bc fc ff ff       	callq  ec0 <random@plt>
    1204:	eb b0                	jmp    11b6 <initialize_target+0x54>
    1206:	48 89 e7             	mov    %rsp,%rdi
    1209:	be 00 01 00 00       	mov    $0x100,%esi
    120e:	e8 2d fd ff ff       	callq  f40 <gethostname@plt>
    1213:	89 c3                	mov    %eax,%ebx
    1215:	85 c0                	test   %eax,%eax
    1217:	75 24                	jne    123d <initialize_target+0xdb>
    1219:	48 63 c3             	movslq %ebx,%rax
    121c:	48 8d 15 7d 3f 20 00 	lea    0x203f7d(%rip),%rdx        # 2051a0 <host_table>
    1223:	48 8b 3c c2          	mov    (%rdx,%rax,8),%rdi
    1227:	48 85 ff             	test   %rdi,%rdi
    122a:	74 27                	je     1253 <initialize_target+0xf1>
    122c:	48 89 e6             	mov    %rsp,%rsi
    122f:	e8 5c fb ff ff       	callq  d90 <strcasecmp@plt>
    1234:	85 c0                	test   %eax,%eax
    1236:	74 1b                	je     1253 <initialize_target+0xf1>
    1238:	83 c3 01             	add    $0x1,%ebx
    123b:	eb dc                	jmp    1219 <initialize_target+0xb7>
    123d:	48 8d 3d 44 1e 00 00 	lea    0x1e44(%rip),%rdi        # 3088 <_IO_stdin_used+0xe8>
    1244:	e8 97 fb ff ff       	callq  de0 <puts@plt>
    1249:	bf 08 00 00 00       	mov    $0x8,%edi
    124e:	e8 0d fd ff ff       	callq  f60 <exit@plt>
    1253:	48 8d bc 24 00 01 00 	lea    0x100(%rsp),%rdi
    125a:	00 
    125b:	e8 22 1a 00 00       	callq  2c82 <init_driver>
    1260:	85 c0                	test   %eax,%eax
    1262:	79 80                	jns    11e4 <initialize_target+0x82>
    1264:	48 8d b4 24 00 01 00 	lea    0x100(%rsp),%rsi
    126b:	00 
    126c:	48 8d 3d 4d 1e 00 00 	lea    0x1e4d(%rip),%rdi        # 30c0 <_IO_stdin_used+0x120>
    1273:	b8 00 00 00 00       	mov    $0x0,%eax
    1278:	e8 93 fb ff ff       	callq  e10 <printf@plt>
    127d:	bf 08 00 00 00       	mov    $0x8,%edi
    1282:	e8 d9 fc ff ff       	callq  f60 <exit@plt>

0000000000001287 <main>:
    1287:	41 56                	push   %r14
    1289:	41 55                	push   %r13
    128b:	41 54                	push   %r12
    128d:	55                   	push   %rbp
    128e:	53                   	push   %rbx
    128f:	41 89 fc             	mov    %edi,%r12d
    1292:	48 89 f3             	mov    %rsi,%rbx
    1295:	48 8d 35 8c 0d 00 00 	lea    0xd8c(%rip),%rsi        # 2028 <seghandler>
    129c:	bf 0b 00 00 00       	mov    $0xb,%edi
    12a1:	e8 ba fb ff ff       	callq  e60 <signal@plt>
    12a6:	48 8d 35 27 0d 00 00 	lea    0xd27(%rip),%rsi        # 1fd4 <bushandler>
    12ad:	bf 07 00 00 00       	mov    $0x7,%edi
    12b2:	e8 a9 fb ff ff       	callq  e60 <signal@plt>
    12b7:	48 8d 35 be 0d 00 00 	lea    0xdbe(%rip),%rsi        # 207c <illegalhandler>
    12be:	bf 04 00 00 00       	mov    $0x4,%edi
    12c3:	e8 98 fb ff ff       	callq  e60 <signal@plt>
    12c8:	83 3d 19 42 20 00 00 	cmpl   $0x0,0x204219(%rip)        # 2054e8 <is_checker>
    12cf:	75 58                	jne    1329 <main+0xa2>
    12d1:	48 8d 2d ad 1e 00 00 	lea    0x1ead(%rip),%rbp        # 3185 <_IO_stdin_used+0x1e5>
    12d8:	48 8b 05 81 3e 20 00 	mov    0x203e81(%rip),%rax        # 205160 <stdin@@GLIBC_2.2.5>
    12df:	48 89 05 ea 41 20 00 	mov    %rax,0x2041ea(%rip)        # 2054d0 <infile>
    12e6:	41 bd 00 00 00 00    	mov    $0x0,%r13d
    12ec:	41 be 00 00 00 00    	mov    $0x0,%r14d
    12f2:	48 89 ea             	mov    %rbp,%rdx
    12f5:	48 89 de             	mov    %rbx,%rsi
    12f8:	44 89 e7             	mov    %r12d,%edi
    12fb:	e8 20 fc ff ff       	callq  f20 <getopt@plt>
    1300:	3c ff                	cmp    $0xff,%al
    1302:	0f 84 f8 00 00 00    	je     1400 <main+0x179>
    1308:	0f be f0             	movsbl %al,%esi
    130b:	83 e8 61             	sub    $0x61,%eax
    130e:	3c 10                	cmp    $0x10,%al
    1310:	0f 87 d1 00 00 00    	ja     13e7 <main+0x160>
    1316:	0f b6 c0             	movzbl %al,%eax
    1319:	48 8d 15 b0 1e 00 00 	lea    0x1eb0(%rip),%rdx        # 31d0 <_IO_stdin_used+0x230>
    1320:	48 63 04 82          	movslq (%rdx,%rax,4),%rax
    1324:	48 01 d0             	add    %rdx,%rax
    1327:	ff e0                	jmpq   *%rax
    1329:	48 8d 35 a0 0d 00 00 	lea    0xda0(%rip),%rsi        # 20d0 <sigalrmhandler>
    1330:	bf 0e 00 00 00       	mov    $0xe,%edi
    1335:	e8 26 fb ff ff       	callq  e60 <signal@plt>
    133a:	bf 05 00 00 00       	mov    $0x5,%edi
    133f:	e8 ec fa ff ff       	callq  e30 <alarm@plt>
    1344:	48 8d 2d 3f 1e 00 00 	lea    0x1e3f(%rip),%rbp        # 318a <_IO_stdin_used+0x1ea>
    134b:	eb 8b                	jmp    12d8 <main+0x51>
    134d:	48 8b 3b             	mov    (%rbx),%rdi
    1350:	e8 7b fd ff ff       	callq  10d0 <usage>
    1355:	48 8d 35 89 20 00 00 	lea    0x2089(%rip),%rsi        # 33e5 <_IO_stdin_used+0x445>
    135c:	48 8b 3d 05 3e 20 00 	mov    0x203e05(%rip),%rdi        # 205168 <optarg@@GLIBC_2.2.5>
    1363:	e8 a8 fb ff ff       	callq  f10 <fopen@plt>
    1368:	48 89 05 61 41 20 00 	mov    %rax,0x204161(%rip)        # 2054d0 <infile>
    136f:	48 85 c0             	test   %rax,%rax
    1372:	0f 85 7a ff ff ff    	jne    12f2 <main+0x6b>
    1378:	48 8b 15 e9 3d 20 00 	mov    0x203de9(%rip),%rdx        # 205168 <optarg@@GLIBC_2.2.5>
    137f:	48 8d 35 0c 1e 00 00 	lea    0x1e0c(%rip),%rsi        # 3192 <_IO_stdin_used+0x1f2>
    1386:	48 8b 3d f3 3d 20 00 	mov    0x203df3(%rip),%rdi        # 205180 <stderr@@GLIBC_2.2.5>
    138d:	e8 ee fa ff ff       	callq  e80 <fprintf@plt>
    1392:	b8 01 00 00 00       	mov    $0x1,%eax
    1397:	e9 c9 00 00 00       	jmpq   1465 <main+0x1de>
    139c:	ba 10 00 00 00       	mov    $0x10,%edx
    13a1:	be 00 00 00 00       	mov    $0x0,%esi
    13a6:	48 8b 3d bb 3d 20 00 	mov    0x203dbb(%rip),%rdi        # 205168 <optarg@@GLIBC_2.2.5>
    13ad:	e8 7e fb ff ff       	callq  f30 <strtoul@plt>
    13b2:	41 89 c6             	mov    %eax,%r14d
    13b5:	e9 38 ff ff ff       	jmpq   12f2 <main+0x6b>

#if __HAVE_FLOAT64 && __GLIBC_USE (IEC_60559_TYPES_EXT)
extern int strfromf64 (char *__dest, size_t __size, const char * __format,
		       _Float64 __f)
     __THROW __nonnull ((3));
#endif
    13ba:	ba 0a 00 00 00       	mov    $0xa,%edx
    13bf:	be 00 00 00 00       	mov    $0x0,%esi
    13c4:	48 8b 3d 9d 3d 20 00 	mov    0x203d9d(%rip),%rdi        # 205168 <optarg@@GLIBC_2.2.5>
    13cb:	e8 c0 fa ff ff       	callq  e90 <strtol@plt>
    13d0:	41 89 c5             	mov    %eax,%r13d
    13d3:	e9 1a ff ff ff       	jmpq   12f2 <main+0x6b>
    13d8:	c7 05 6e 3d 20 00 00 	movl   $0x0,0x203d6e(%rip)        # 205150 <notify>
    13df:	00 00 00 
    13e2:	e9 0b ff ff ff       	jmpq   12f2 <main+0x6b>
    13e7:	48 8d 3d c1 1d 00 00 	lea    0x1dc1(%rip),%rdi        # 31af <_IO_stdin_used+0x20f>
    13ee:	b8 00 00 00 00       	mov    $0x0,%eax
    13f3:	e8 18 fa ff ff       	callq  e10 <printf@plt>
    13f8:	48 8b 3b             	mov    (%rbx),%rdi
    13fb:	e8 d0 fc ff ff       	callq  10d0 <usage>
    1400:	be 01 00 00 00       	mov    $0x1,%esi
    1405:	44 89 ef             	mov    %r13d,%edi
    1408:	e8 55 fd ff ff       	callq  1162 <initialize_target>
    140d:	83 3d d4 40 20 00 00 	cmpl   $0x0,0x2040d4(%rip)        # 2054e8 <is_checker>
    1414:	74 27                	je     143d <main+0x1b6>
    1416:	44 3b 35 c3 40 20 00 	cmp    0x2040c3(%rip),%r14d        # 2054e0 <authkey>
    141d:	74 1e                	je     143d <main+0x1b6>
    141f:	44 89 f6             	mov    %r14d,%esi
    1422:	48 8d 3d bf 1c 00 00 	lea    0x1cbf(%rip),%rdi        # 30e8 <_IO_stdin_used+0x148>
    1429:	b8 00 00 00 00       	mov    $0x0,%eax
    142e:	e8 dd f9 ff ff       	callq  e10 <printf@plt>
    1433:	b8 00 00 00 00       	mov    $0x0,%eax
    1438:	e8 67 08 00 00       	callq  1ca4 <check_fail>
    143d:	8b 35 a1 40 20 00    	mov    0x2040a1(%rip),%esi        # 2054e4 <cookie>
    1443:	48 8d 3d 78 1d 00 00 	lea    0x1d78(%rip),%rdi        # 31c2 <_IO_stdin_used+0x222>
    144a:	b8 00 00 00 00       	mov    $0x0,%eax
    144f:	e8 bc f9 ff ff       	callq  e10 <printf@plt>
    1454:	48 8b 3d ed 3c 20 00 	mov    0x203ced(%rip),%rdi        # 205148 <buf_offset>
    145b:	e8 c2 0c 00 00       	callq  2122 <launch>
    1460:	b8 00 00 00 00       	mov    $0x0,%eax
    1465:	5b                   	pop    %rbx
    1466:	5d                   	pop    %rbp
    1467:	41 5c                	pop    %r12
    1469:	41 5d                	pop    %r13
    146b:	41 5e                	pop    %r14
    146d:	c3                   	retq   

000000000000146e <scramble>:
    146e:	b8 00 00 00 00       	mov    $0x0,%eax
    1473:	eb 11                	jmp    1486 <scramble+0x18>
    1475:	69 d0 28 47 00 00    	imul   $0x4728,%eax,%edx
    147b:	01 fa                	add    %edi,%edx
    147d:	89 c1                	mov    %eax,%ecx
    147f:	89 54 8c d0          	mov    %edx,-0x30(%rsp,%rcx,4)
    1483:	83 c0 01             	add    $0x1,%eax
    1486:	83 f8 09             	cmp    $0x9,%eax
    1489:	76 ea                	jbe    1475 <scramble+0x7>
    148b:	8b 44 24 e4          	mov    -0x1c(%rsp),%eax
    148f:	69 c0 fa 96 00 00    	imul   $0x96fa,%eax,%eax
    1495:	89 44 24 e4          	mov    %eax,-0x1c(%rsp)
    1499:	8b 44 24 d4          	mov    -0x2c(%rsp),%eax
    149d:	69 c0 c1 46 00 00    	imul   $0x46c1,%eax,%eax
    14a3:	89 44 24 d4          	mov    %eax,-0x2c(%rsp)
    14a7:	8b 44 24 d4          	mov    -0x2c(%rsp),%eax
    14ab:	69 c0 78 99 00 00    	imul   $0x9978,%eax,%eax
    14b1:	89 44 24 d4          	mov    %eax,-0x2c(%rsp)
    14b5:	8b 44 24 d0          	mov    -0x30(%rsp),%eax
    14b9:	69 c0 5c 20 00 00    	imul   $0x205c,%eax,%eax
    14bf:	89 44 24 d0          	mov    %eax,-0x30(%rsp)
    14c3:	8b 44 24 e4          	mov    -0x1c(%rsp),%eax
    14c7:	69 c0 20 39 00 00    	imul   $0x3920,%eax,%eax
    14cd:	89 44 24 e4          	mov    %eax,-0x1c(%rsp)
    14d1:	8b 44 24 f4          	mov    -0xc(%rsp),%eax
    14d5:	69 c0 f6 8a 00 00    	imul   $0x8af6,%eax,%eax
    14db:	89 44 24 f4          	mov    %eax,-0xc(%rsp)
    14df:	8b 44 24 e0          	mov    -0x20(%rsp),%eax
    14e3:	69 c0 df b2 00 00    	imul   $0xb2df,%eax,%eax
    14e9:	89 44 24 e0          	mov    %eax,-0x20(%rsp)
    14ed:	8b 44 24 f4          	mov    -0xc(%rsp),%eax
    14f1:	69 c0 cb 4f 00 00    	imul   $0x4fcb,%eax,%eax
    14f7:	89 44 24 f4          	mov    %eax,-0xc(%rsp)
    14fb:	8b 44 24 ec          	mov    -0x14(%rsp),%eax
    14ff:	69 c0 b1 1a 00 00    	imul   $0x1ab1,%eax,%eax
    1505:	89 44 24 ec          	mov    %eax,-0x14(%rsp)
    1509:	8b 44 24 d8          	mov    -0x28(%rsp),%eax
    150d:	69 c0 a3 68 00 00    	imul   $0x68a3,%eax,%eax
    1513:	89 44 24 d8          	mov    %eax,-0x28(%rsp)
    1517:	8b 44 24 f4          	mov    -0xc(%rsp),%eax
    151b:	69 c0 8d 9c 00 00    	imul   $0x9c8d,%eax,%eax
    1521:	89 44 24 f4          	mov    %eax,-0xc(%rsp)
    1525:	8b 44 24 e0          	mov    -0x20(%rsp),%eax
    1529:	69 c0 17 8d 00 00    	imul   $0x8d17,%eax,%eax
    152f:	89 44 24 e0          	mov    %eax,-0x20(%rsp)
    1533:	8b 44 24 d4          	mov    -0x2c(%rsp),%eax
    1537:	69 c0 fd 92 00 00    	imul   $0x92fd,%eax,%eax
    153d:	89 44 24 d4          	mov    %eax,-0x2c(%rsp)
    1541:	8b 44 24 d8          	mov    -0x28(%rsp),%eax
    1545:	69 c0 66 59 00 00    	imul   $0x5966,%eax,%eax
    154b:	89 44 24 d8          	mov    %eax,-0x28(%rsp)
    154f:	8b 44 24 e0          	mov    -0x20(%rsp),%eax
    1553:	69 c0 39 21 00 00    	imul   $0x2139,%eax,%eax
    1559:	89 44 24 e0          	mov    %eax,-0x20(%rsp)
    155d:	8b 44 24 d4          	mov    -0x2c(%rsp),%eax
    1561:	69 c0 d5 48 00 00    	imul   $0x48d5,%eax,%eax
    1567:	89 44 24 d4          	mov    %eax,-0x2c(%rsp)
    156b:	8b 44 24 f0          	mov    -0x10(%rsp),%eax
    156f:	69 c0 a3 82 00 00    	imul   $0x82a3,%eax,%eax
    1575:	89 44 24 f0          	mov    %eax,-0x10(%rsp)
    1579:	8b 44 24 d0          	mov    -0x30(%rsp),%eax
    157d:	69 c0 ce 4e 00 00    	imul   $0x4ece,%eax,%eax
    1583:	89 44 24 d0          	mov    %eax,-0x30(%rsp)
    1587:	8b 44 24 d8          	mov    -0x28(%rsp),%eax
    158b:	69 c0 39 61 00 00    	imul   $0x6139,%eax,%eax
    1591:	89 44 24 d8          	mov    %eax,-0x28(%rsp)
    1595:	8b 44 24 e8          	mov    -0x18(%rsp),%eax
    1599:	69 c0 b4 64 00 00    	imul   $0x64b4,%eax,%eax
    159f:	89 44 24 e8          	mov    %eax,-0x18(%rsp)
    15a3:	8b 44 24 ec          	mov    -0x14(%rsp),%eax
    15a7:	69 c0 ad 6f 00 00    	imul   $0x6fad,%eax,%eax
    15ad:	89 44 24 ec          	mov    %eax,-0x14(%rsp)
    15b1:	8b 44 24 e8          	mov    -0x18(%rsp),%eax
    15b5:	69 c0 11 a3 00 00    	imul   $0xa311,%eax,%eax
    15bb:	89 44 24 e8          	mov    %eax,-0x18(%rsp)
    15bf:	8b 44 24 e8          	mov    -0x18(%rsp),%eax
    15c3:	69 c0 6d 8c 00 00    	imul   $0x8c6d,%eax,%eax
    15c9:	89 44 24 e8          	mov    %eax,-0x18(%rsp)
    15cd:	8b 44 24 e0          	mov    -0x20(%rsp),%eax
    15d1:	69 c0 99 dd 00 00    	imul   $0xdd99,%eax,%eax
    15d7:	89 44 24 e0          	mov    %eax,-0x20(%rsp)
    15db:	8b 44 24 f4          	mov    -0xc(%rsp),%eax
    15df:	69 c0 5e bc 00 00    	imul   $0xbc5e,%eax,%eax
    15e5:	89 44 24 f4          	mov    %eax,-0xc(%rsp)
    15e9:	8b 44 24 e4          	mov    -0x1c(%rsp),%eax
    15ed:	69 c0 ee 83 00 00    	imul   $0x83ee,%eax,%eax
    15f3:	89 44 24 e4          	mov    %eax,-0x1c(%rsp)
    15f7:	8b 44 24 e4          	mov    -0x1c(%rsp),%eax
    15fb:	69 c0 74 14 00 00    	imul   $0x1474,%eax,%eax
    1601:	89 44 24 e4          	mov    %eax,-0x1c(%rsp)
    1605:	8b 44 24 f4          	mov    -0xc(%rsp),%eax
    1609:	69 c0 6e 1c 00 00    	imul   $0x1c6e,%eax,%eax
    160f:	89 44 24 f4          	mov    %eax,-0xc(%rsp)
    1613:	8b 44 24 f0          	mov    -0x10(%rsp),%eax
    1617:	69 c0 8c a3 00 00    	imul   $0xa38c,%eax,%eax
    161d:	89 44 24 f0          	mov    %eax,-0x10(%rsp)
    1621:	8b 44 24 dc          	mov    -0x24(%rsp),%eax
    1625:	69 c0 1e a9 00 00    	imul   $0xa91e,%eax,%eax
    162b:	89 44 24 dc          	mov    %eax,-0x24(%rsp)
    162f:	8b 44 24 dc          	mov    -0x24(%rsp),%eax
    1633:	69 c0 6c ea 00 00    	imul   $0xea6c,%eax,%eax
    1639:	89 44 24 dc          	mov    %eax,-0x24(%rsp)
    163d:	8b 44 24 e4          	mov    -0x1c(%rsp),%eax
    1641:	69 c0 f8 7c 00 00    	imul   $0x7cf8,%eax,%eax
    1647:	89 44 24 e4          	mov    %eax,-0x1c(%rsp)
    164b:	8b 44 24 d0          	mov    -0x30(%rsp),%eax
    164f:	69 c0 89 81 00 00    	imul   $0x8189,%eax,%eax
    1655:	89 44 24 d0          	mov    %eax,-0x30(%rsp)
    1659:	8b 44 24 e0          	mov    -0x20(%rsp),%eax
    165d:	69 c0 2b 89 00 00    	imul   $0x892b,%eax,%eax
    1663:	89 44 24 e0          	mov    %eax,-0x20(%rsp)
    1667:	8b 44 24 d0          	mov    -0x30(%rsp),%eax
    166b:	69 c0 f0 3a 00 00    	imul   $0x3af0,%eax,%eax
    1671:	89 44 24 d0          	mov    %eax,-0x30(%rsp)
    1675:	8b 44 24 dc          	mov    -0x24(%rsp),%eax
    1679:	69 c0 1c 7d 00 00    	imul   $0x7d1c,%eax,%eax
    167f:	89 44 24 dc          	mov    %eax,-0x24(%rsp)
    1683:	8b 44 24 ec          	mov    -0x14(%rsp),%eax
    1687:	69 c0 8b dd 00 00    	imul   $0xdd8b,%eax,%eax
    168d:	89 44 24 ec          	mov    %eax,-0x14(%rsp)
    1691:	8b 44 24 d8          	mov    -0x28(%rsp),%eax
    1695:	69 c0 29 cd 00 00    	imul   $0xcd29,%eax,%eax
    169b:	89 44 24 d8          	mov    %eax,-0x28(%rsp)
    169f:	8b 44 24 ec          	mov    -0x14(%rsp),%eax
    16a3:	69 c0 0a 13 00 00    	imul   $0x130a,%eax,%eax
    16a9:	89 44 24 ec          	mov    %eax,-0x14(%rsp)
    16ad:	8b 44 24 d8          	mov    -0x28(%rsp),%eax
    16b1:	69 c0 16 11 00 00    	imul   $0x1116,%eax,%eax
    16b7:	89 44 24 d8          	mov    %eax,-0x28(%rsp)
    16bb:	8b 44 24 dc          	mov    -0x24(%rsp),%eax
    16bf:	69 c0 00 f1 00 00    	imul   $0xf100,%eax,%eax
    16c5:	89 44 24 dc          	mov    %eax,-0x24(%rsp)
    16c9:	8b 44 24 f0          	mov    -0x10(%rsp),%eax
    16cd:	69 c0 53 28 00 00    	imul   $0x2853,%eax,%eax
    16d3:	89 44 24 f0          	mov    %eax,-0x10(%rsp)
    16d7:	8b 44 24 d4          	mov    -0x2c(%rsp),%eax
    16db:	69 c0 0a a6 00 00    	imul   $0xa60a,%eax,%eax
    16e1:	89 44 24 d4          	mov    %eax,-0x2c(%rsp)
    16e5:	8b 44 24 f4          	mov    -0xc(%rsp),%eax
    16e9:	69 c0 e5 ac 00 00    	imul   $0xace5,%eax,%eax
    16ef:	89 44 24 f4          	mov    %eax,-0xc(%rsp)
    16f3:	8b 44 24 d4          	mov    -0x2c(%rsp),%eax
    16f7:	69 c0 95 ba 00 00    	imul   $0xba95,%eax,%eax
    16fd:	89 44 24 d4          	mov    %eax,-0x2c(%rsp)
    1701:	8b 44 24 e4          	mov    -0x1c(%rsp),%eax
    1705:	69 c0 5c 0e 00 00    	imul   $0xe5c,%eax,%eax
    170b:	89 44 24 e4          	mov    %eax,-0x1c(%rsp)
    170f:	8b 44 24 ec          	mov    -0x14(%rsp),%eax
    1713:	69 c0 f6 47 00 00    	imul   $0x47f6,%eax,%eax
    1719:	89 44 24 ec          	mov    %eax,-0x14(%rsp)
    171d:	8b 44 24 f4          	mov    -0xc(%rsp),%eax
    1721:	69 c0 11 12 00 00    	imul   $0x1211,%eax,%eax
    1727:	89 44 24 f4          	mov    %eax,-0xc(%rsp)
    172b:	8b 44 24 f0          	mov    -0x10(%rsp),%eax
    172f:	69 c0 1b 57 00 00    	imul   $0x571b,%eax,%eax
    1735:	89 44 24 f0          	mov    %eax,-0x10(%rsp)
    1739:	8b 44 24 e0          	mov    -0x20(%rsp),%eax
    173d:	69 c0 42 ac 00 00    	imul   $0xac42,%eax,%eax
    1743:	89 44 24 e0          	mov    %eax,-0x20(%rsp)
    1747:	8b 44 24 e8          	mov    -0x18(%rsp),%eax
    174b:	69 c0 1c 89 00 00    	imul   $0x891c,%eax,%eax
    1751:	89 44 24 e8          	mov    %eax,-0x18(%rsp)
    1755:	8b 44 24 ec          	mov    -0x14(%rsp),%eax
    1759:	69 c0 a9 3c 00 00    	imul   $0x3ca9,%eax,%eax
    175f:	89 44 24 ec          	mov    %eax,-0x14(%rsp)
    1763:	8b 44 24 d4          	mov    -0x2c(%rsp),%eax
    1767:	69 c0 8c 49 00 00    	imul   $0x498c,%eax,%eax
    176d:	89 44 24 d4          	mov    %eax,-0x2c(%rsp)
    1771:	8b 44 24 d8          	mov    -0x28(%rsp),%eax
    1775:	69 c0 9f d0 00 00    	imul   $0xd09f,%eax,%eax
    177b:	89 44 24 d8          	mov    %eax,-0x28(%rsp)
    177f:	8b 44 24 f0          	mov    -0x10(%rsp),%eax
    1783:	69 c0 96 b4 00 00    	imul   $0xb496,%eax,%eax
    1789:	89 44 24 f0          	mov    %eax,-0x10(%rsp)
    178d:	8b 44 24 f0          	mov    -0x10(%rsp),%eax
    1791:	69 c0 fe 2b 00 00    	imul   $0x2bfe,%eax,%eax
    1797:	89 44 24 f0          	mov    %eax,-0x10(%rsp)
    179b:	8b 44 24 e4          	mov    -0x1c(%rsp),%eax
    179f:	69 c0 bb 76 00 00    	imul   $0x76bb,%eax,%eax
    17a5:	89 44 24 e4          	mov    %eax,-0x1c(%rsp)
    17a9:	8b 44 24 dc          	mov    -0x24(%rsp),%eax
    17ad:	69 c0 0a ab 00 00    	imul   $0xab0a,%eax,%eax
    17b3:	89 44 24 dc          	mov    %eax,-0x24(%rsp)
    17b7:	8b 44 24 ec          	mov    -0x14(%rsp),%eax
    17bb:	69 c0 13 99 00 00    	imul   $0x9913,%eax,%eax
    17c1:	89 44 24 ec          	mov    %eax,-0x14(%rsp)
    17c5:	8b 44 24 d8          	mov    -0x28(%rsp),%eax
    17c9:	69 c0 5c 66 00 00    	imul   $0x665c,%eax,%eax
    17cf:	89 44 24 d8          	mov    %eax,-0x28(%rsp)
    17d3:	8b 44 24 e4          	mov    -0x1c(%rsp),%eax
    17d7:	69 c0 f3 ad 00 00    	imul   $0xadf3,%eax,%eax
    17dd:	89 44 24 e4          	mov    %eax,-0x1c(%rsp)
    17e1:	8b 44 24 ec          	mov    -0x14(%rsp),%eax
    17e5:	69 c0 aa f8 00 00    	imul   $0xf8aa,%eax,%eax
    17eb:	89 44 24 ec          	mov    %eax,-0x14(%rsp)
    17ef:	8b 44 24 d4          	mov    -0x2c(%rsp),%eax
    17f3:	6b c0 0e             	imul   $0xe,%eax,%eax
    17f6:	89 44 24 d4          	mov    %eax,-0x2c(%rsp)
    17fa:	8b 44 24 e4          	mov    -0x1c(%rsp),%eax
    17fe:	69 c0 69 bf 00 00    	imul   $0xbf69,%eax,%eax
    1804:	89 44 24 e4          	mov    %eax,-0x1c(%rsp)
    1808:	8b 44 24 e4          	mov    -0x1c(%rsp),%eax
    180c:	69 c0 f7 a5 00 00    	imul   $0xa5f7,%eax,%eax
    1812:	89 44 24 e4          	mov    %eax,-0x1c(%rsp)
    1816:	8b 44 24 d0          	mov    -0x30(%rsp),%eax
    181a:	69 c0 35 e9 00 00    	imul   $0xe935,%eax,%eax
    1820:	89 44 24 d0          	mov    %eax,-0x30(%rsp)
    1824:	8b 44 24 f4          	mov    -0xc(%rsp),%eax
    1828:	69 c0 09 95 00 00    	imul   $0x9509,%eax,%eax
    182e:	89 44 24 f4          	mov    %eax,-0xc(%rsp)
    1832:	8b 44 24 ec          	mov    -0x14(%rsp),%eax
    1836:	69 c0 bb 95 00 00    	imul   $0x95bb,%eax,%eax
    183c:	89 44 24 ec          	mov    %eax,-0x14(%rsp)
    1840:	8b 44 24 d4          	mov    -0x2c(%rsp),%eax
    1844:	69 c0 b2 2f 00 00    	imul   $0x2fb2,%eax,%eax
    184a:	89 44 24 d4          	mov    %eax,-0x2c(%rsp)
    184e:	8b 44 24 d0          	mov    -0x30(%rsp),%eax
    1852:	69 c0 2b 3b 00 00    	imul   $0x3b2b,%eax,%eax
    1858:	89 44 24 d0          	mov    %eax,-0x30(%rsp)
    185c:	8b 44 24 ec          	mov    -0x14(%rsp),%eax
    1860:	69 c0 11 48 00 00    	imul   $0x4811,%eax,%eax
    1866:	89 44 24 ec          	mov    %eax,-0x14(%rsp)
    186a:	8b 44 24 e8          	mov    -0x18(%rsp),%eax
    186e:	69 c0 de 89 00 00    	imul   $0x89de,%eax,%eax
    1874:	89 44 24 e8          	mov    %eax,-0x18(%rsp)
    1878:	8b 44 24 f0          	mov    -0x10(%rsp),%eax
    187c:	69 c0 7b bb 00 00    	imul   $0xbb7b,%eax,%eax
    1882:	89 44 24 f0          	mov    %eax,-0x10(%rsp)
    1886:	8b 44 24 e0          	mov    -0x20(%rsp),%eax
    188a:	69 c0 91 db 00 00    	imul   $0xdb91,%eax,%eax
    1890:	89 44 24 e0          	mov    %eax,-0x20(%rsp)
    1894:	8b 44 24 e0          	mov    -0x20(%rsp),%eax
    1898:	69 c0 d7 8c 00 00    	imul   $0x8cd7,%eax,%eax
    189e:	89 44 24 e0          	mov    %eax,-0x20(%rsp)
    18a2:	8b 44 24 f0          	mov    -0x10(%rsp),%eax
    18a6:	69 c0 36 a8 00 00    	imul   $0xa836,%eax,%eax
    18ac:	89 44 24 f0          	mov    %eax,-0x10(%rsp)
    18b0:	8b 44 24 e8          	mov    -0x18(%rsp),%eax
    18b4:	69 c0 a7 b6 00 00    	imul   $0xb6a7,%eax,%eax
    18ba:	89 44 24 e8          	mov    %eax,-0x18(%rsp)
    18be:	8b 44 24 ec          	mov    -0x14(%rsp),%eax
    18c2:	69 c0 b4 30 00 00    	imul   $0x30b4,%eax,%eax
    18c8:	89 44 24 ec          	mov    %eax,-0x14(%rsp)
    18cc:	8b 44 24 ec          	mov    -0x14(%rsp),%eax
    18d0:	69 c0 9b ab 00 00    	imul   $0xab9b,%eax,%eax
    18d6:	89 44 24 ec          	mov    %eax,-0x14(%rsp)
    18da:	8b 44 24 f4          	mov    -0xc(%rsp),%eax
    18de:	69 c0 de 0d 00 00    	imul   $0xdde,%eax,%eax
    18e4:	89 44 24 f4          	mov    %eax,-0xc(%rsp)
    18e8:	8b 44 24 d8          	mov    -0x28(%rsp),%eax
    18ec:	69 c0 c8 5b 00 00    	imul   $0x5bc8,%eax,%eax
    18f2:	89 44 24 d8          	mov    %eax,-0x28(%rsp)
    18f6:	8b 44 24 dc          	mov    -0x24(%rsp),%eax
    18fa:	69 c0 a7 80 00 00    	imul   $0x80a7,%eax,%eax
    1900:	89 44 24 dc          	mov    %eax,-0x24(%rsp)
    1904:	8b 44 24 d0          	mov    -0x30(%rsp),%eax
    1908:	69 c0 f3 1c 00 00    	imul   $0x1cf3,%eax,%eax
    190e:	89 44 24 d0          	mov    %eax,-0x30(%rsp)
    1912:	8b 44 24 e4          	mov    -0x1c(%rsp),%eax
    1916:	69 c0 67 cf 00 00    	imul   $0xcf67,%eax,%eax
    191c:	89 44 24 e4          	mov    %eax,-0x1c(%rsp)
    1920:	8b 44 24 e0          	mov    -0x20(%rsp),%eax
    1924:	69 c0 bd 7c 00 00    	imul   $0x7cbd,%eax,%eax
    192a:	89 44 24 e0          	mov    %eax,-0x20(%rsp)
    192e:	8b 44 24 d8          	mov    -0x28(%rsp),%eax
    1932:	69 c0 ed 30 00 00    	imul   $0x30ed,%eax,%eax
    1938:	89 44 24 d8          	mov    %eax,-0x28(%rsp)
    193c:	8b 44 24 ec          	mov    -0x14(%rsp),%eax
    1940:	69 c0 bc 71 00 00    	imul   $0x71bc,%eax,%eax
    1946:	89 44 24 ec          	mov    %eax,-0x14(%rsp)
    194a:	ba 00 00 00 00       	mov    $0x0,%edx
    194f:	b8 00 00 00 00       	mov    $0x0,%eax
    1954:	eb 0b                	jmp    1961 <scramble+0x4f3>
    1956:	89 d1                	mov    %edx,%ecx
    1958:	8b 4c 8c d0          	mov    -0x30(%rsp,%rcx,4),%ecx
    195c:	01 c8                	add    %ecx,%eax
    195e:	83 c2 01             	add    $0x1,%edx
    1961:	83 fa 09             	cmp    $0x9,%edx
    1964:	76 f0                	jbe    1956 <scramble+0x4e8>
    1966:	f3 c3                	repz retq 

0000000000001968 <getbuf>:
    1968:	48 83 ec 18          	sub    $0x18,%rsp
    196c:	48 89 e7             	mov    %rsp,%rdi
    196f:	e8 63 03 00 00       	callq  1cd7 <Gets>
    1974:	b8 01 00 00 00       	mov    $0x1,%eax
    1979:	48 83 c4 18          	add    $0x18,%rsp
    197d:	c3                   	retq   

000000000000197e <touch1>:
    197e:	48 83 ec 08          	sub    $0x8,%rsp
    1982:	c7 05 50 3b 20 00 01 	movl   $0x1,0x203b50(%rip)        # 2054dc <vlevel>
    1989:	00 00 00 
    198c:	48 8d 3d a4 18 00 00 	lea    0x18a4(%rip),%rdi        # 3237 <_IO_stdin_used+0x297>
    1993:	e8 48 f4 ff ff       	callq  de0 <puts@plt>
    1998:	bf 01 00 00 00       	mov    $0x1,%edi
    199d:	e8 4c 05 00 00       	callq  1eee <validate>
    19a2:	bf 00 00 00 00       	mov    $0x0,%edi
    19a7:	e8 b4 f5 ff ff       	callq  f60 <exit@plt>

00000000000019ac <touch2>:
    19ac:	48 83 ec 08          	sub    $0x8,%rsp
    19b0:	89 fe                	mov    %edi,%esi
    19b2:	c7 05 20 3b 20 00 02 	movl   $0x2,0x203b20(%rip)        # 2054dc <vlevel>
    19b9:	00 00 00 
    19bc:	39 3d 22 3b 20 00    	cmp    %edi,0x203b22(%rip)        # 2054e4 <cookie>
    19c2:	74 25                	je     19e9 <touch2+0x3d>
    19c4:	48 8d 3d bd 18 00 00 	lea    0x18bd(%rip),%rdi        # 3288 <_IO_stdin_used+0x2e8>
    19cb:	b8 00 00 00 00       	mov    $0x0,%eax
    19d0:	e8 3b f4 ff ff       	callq  e10 <printf@plt>
    19d5:	bf 02 00 00 00       	mov    $0x2,%edi
    19da:	e8 cd 05 00 00       	callq  1fac <fail>
    19df:	bf 00 00 00 00       	mov    $0x0,%edi
    19e4:	e8 77 f5 ff ff       	callq  f60 <exit@plt>
    19e9:	48 8d 3d 70 18 00 00 	lea    0x1870(%rip),%rdi        # 3260 <_IO_stdin_used+0x2c0>
    19f0:	b8 00 00 00 00       	mov    $0x0,%eax
    19f5:	e8 16 f4 ff ff       	callq  e10 <printf@plt>
    19fa:	bf 02 00 00 00       	mov    $0x2,%edi
    19ff:	e8 ea 04 00 00       	callq  1eee <validate>
    1a04:	eb d9                	jmp    19df <touch2+0x33>

0000000000001a06 <hexmatch>:
    1a06:	41 54                	push   %r12
    1a08:	55                   	push   %rbp
    1a09:	53                   	push   %rbx
    1a0a:	48 83 ec 70          	sub    $0x70,%rsp
    1a0e:	89 fd                	mov    %edi,%ebp
    1a10:	48 89 f3             	mov    %rsi,%rbx
    1a13:	e8 a8 f4 ff ff       	callq  ec0 <random@plt>
    1a18:	48 89 c1             	mov    %rax,%rcx
    1a1b:	48 ba 0b d7 a3 70 3d 	movabs $0xa3d70a3d70a3d70b,%rdx
    1a22:	0a d7 a3 
    1a25:	48 f7 ea             	imul   %rdx
    1a28:	48 01 ca             	add    %rcx,%rdx
    1a2b:	48 c1 fa 06          	sar    $0x6,%rdx
    1a2f:	48 89 c8             	mov    %rcx,%rax
    1a32:	48 c1 f8 3f          	sar    $0x3f,%rax
    1a36:	48 29 c2             	sub    %rax,%rdx
    1a39:	48 8d 04 92          	lea    (%rdx,%rdx,4),%rax
    1a3d:	48 8d 14 80          	lea    (%rax,%rax,4),%rdx
    1a41:	48 8d 04 95 00 00 00 	lea    0x0(,%rdx,4),%rax
    1a48:	00 
    1a49:	48 29 c1             	sub    %rax,%rcx
    1a4c:	4c 8d 24 0c          	lea    (%rsp,%rcx,1),%r12
    1a50:	89 ea                	mov    %ebp,%edx
    1a52:	48 8d 35 fb 17 00 00 	lea    0x17fb(%rip),%rsi        # 3254 <_IO_stdin_used+0x2b4>
    1a59:	4c 89 e7             	mov    %r12,%rdi
    1a5c:	b8 00 00 00 00       	mov    $0x0,%eax
    1a61:	e8 ea f4 ff ff       	callq  f50 <sprintf@plt>
    1a66:	ba 09 00 00 00       	mov    $0x9,%edx
    1a6b:	4c 89 e6             	mov    %r12,%rsi
    1a6e:	48 89 df             	mov    %rbx,%rdi
    1a71:	e8 4a f3 ff ff       	callq  dc0 <strncmp@plt>
    1a76:	85 c0                	test   %eax,%eax
    1a78:	0f 94 c0             	sete   %al
    1a7b:	0f b6 c0             	movzbl %al,%eax
    1a7e:	48 83 c4 70          	add    $0x70,%rsp
    1a82:	5b                   	pop    %rbx
    1a83:	5d                   	pop    %rbp
    1a84:	41 5c                	pop    %r12
    1a86:	c3                   	retq   

0000000000001a87 <touch3>:
    1a87:	53                   	push   %rbx
    1a88:	48 89 fb             	mov    %rdi,%rbx
    1a8b:	c7 05 47 3a 20 00 03 	movl   $0x3,0x203a47(%rip)        # 2054dc <vlevel>
    1a92:	00 00 00 
    1a95:	48 89 fe             	mov    %rdi,%rsi
    1a98:	8b 3d 46 3a 20 00    	mov    0x203a46(%rip),%edi        # 2054e4 <cookie>
    1a9e:	e8 63 ff ff ff       	callq  1a06 <hexmatch>
    1aa3:	85 c0                	test   %eax,%eax
    1aa5:	74 28                	je     1acf <touch3+0x48>
    1aa7:	48 89 de             	mov    %rbx,%rsi
    1aaa:	48 8d 3d ff 17 00 00 	lea    0x17ff(%rip),%rdi        # 32b0 <_IO_stdin_used+0x310>
    1ab1:	b8 00 00 00 00       	mov    $0x0,%eax
    1ab6:	e8 55 f3 ff ff       	callq  e10 <printf@plt>
    1abb:	bf 03 00 00 00       	mov    $0x3,%edi
    1ac0:	e8 29 04 00 00       	callq  1eee <validate>
    1ac5:	bf 00 00 00 00       	mov    $0x0,%edi
    1aca:	e8 91 f4 ff ff       	callq  f60 <exit@plt>
    1acf:	48 89 de             	mov    %rbx,%rsi
    1ad2:	48 8d 3d ff 17 00 00 	lea    0x17ff(%rip),%rdi        # 32d8 <_IO_stdin_used+0x338>
    1ad9:	b8 00 00 00 00       	mov    $0x0,%eax
    1ade:	e8 2d f3 ff ff       	callq  e10 <printf@plt>
    1ae3:	bf 03 00 00 00       	mov    $0x3,%edi
    1ae8:	e8 bf 04 00 00       	callq  1fac <fail>
    1aed:	eb d6                	jmp    1ac5 <touch3+0x3e>

0000000000001aef <test>:
    1aef:	48 83 ec 08          	sub    $0x8,%rsp
    1af3:	b8 00 00 00 00       	mov    $0x0,%eax
    1af8:	e8 6b fe ff ff       	callq  1968 <getbuf>
    1afd:	89 c6                	mov    %eax,%esi
    1aff:	48 8d 3d fa 17 00 00 	lea    0x17fa(%rip),%rdi        # 3300 <_IO_stdin_used+0x360>
    1b06:	b8 00 00 00 00       	mov    $0x0,%eax
    1b0b:	e8 00 f3 ff ff       	callq  e10 <printf@plt>
    1b10:	48 83 c4 08          	add    $0x8,%rsp
    1b14:	c3                   	retq   

0000000000001b15 <start_farm>:
    1b15:	b8 01 00 00 00       	mov    $0x1,%eax
    1b1a:	c3                   	retq   

0000000000001b1b <addval_400>:
    1b1b:	8d 87 48 89 c7 c3    	lea    -0x3c3876b8(%rdi),%eax
    1b21:	c3                   	retq   

0000000000001b22 <getval_381>:
    1b22:	b8 8f 58 89 c7       	mov    $0xc789588f,%eax
    1b27:	c3                   	retq   

0000000000001b28 <setval_384>:
    1b28:	c7 07 e4 4c 89 c7    	movl   $0xc7894ce4,(%rdi)
    1b2e:	c3                   	retq   

0000000000001b2f <getval_364>:
    1b2f:	b8 80 b9 58 90       	mov    $0x9058b980,%eax
    1b34:	c3                   	retq   

0000000000001b35 <getval_296>:
    1b35:	b8 ff 48 89 c7       	mov    $0xc78948ff,%eax
    1b3a:	c3                   	retq   

0000000000001b3b <addval_459>:
    1b3b:	8d 87 5e ad 6f 50    	lea    0x506fad5e(%rdi),%eax
    1b41:	c3                   	retq   

0000000000001b42 <addval_247>:
    1b42:	8d 87 22 04 58 c7    	lea    -0x38a7fbde(%rdi),%eax
    1b48:	c3                   	retq   

0000000000001b49 <setval_144>:
    1b49:	c7 07 0c bd a8 58    	movl   $0x58a8bd0c,(%rdi)
    1b4f:	c3                   	retq   

0000000000001b50 <mid_farm>:
    1b50:	b8 01 00 00 00       	mov    $0x1,%eax
    1b55:	c3                   	retq   

0000000000001b56 <add_xy>:
    1b56:	48 8d 04 37          	lea    (%rdi,%rsi,1),%rax
    1b5a:	c3                   	retq   

0000000000001b5b <getval_488>:
    1b5b:	b8 89 d1 48 db       	mov    $0xdb48d189,%eax
    1b60:	c3                   	retq   

0000000000001b61 <getval_367>:
    1b61:	b8 00 4b 89 ce       	mov    $0xce894b00,%eax
    1b66:	c3                   	retq   

0000000000001b67 <getval_270>:
    1b67:	b8 97 68 89 e0       	mov    $0xe0896897,%eax
    1b6c:	c3                   	retq   

0000000000001b6d <addval_156>:
    1b6d:	8d 87 89 c2 90 90    	lea    -0x6f6f3d77(%rdi),%eax
    1b73:	c3                   	retq   

0000000000001b74 <setval_168>:
    1b74:	c7 07 89 d1 08 d2    	movl   $0xd208d189,(%rdi)
    1b7a:	c3                   	retq   

0000000000001b7b <addval_207>:
    1b7b:	8d 87 89 d1 60 c9    	lea    -0x369f2e77(%rdi),%eax
    1b81:	c3                   	retq   

0000000000001b82 <setval_234>:
    1b82:	c7 07 48 89 e0 94    	movl   $0x94e08948,(%rdi)
    1b88:	c3                   	retq   

0000000000001b89 <addval_343>:
    1b89:	8d 87 2b 1a 89 ce    	lea    -0x3176e5d5(%rdi),%eax
    1b8f:	c3                   	retq   

0000000000001b90 <getval_329>:
    1b90:	b8 89 ce c7 ee       	mov    $0xeec7ce89,%eax
    1b95:	c3                   	retq   

0000000000001b96 <setval_484>:
    1b96:	c7 07 89 c2 28 db    	movl   $0xdb28c289,(%rdi)
    1b9c:	c3                   	retq   

0000000000001b9d <setval_454>:
    1b9d:	c7 07 48 89 e0 c3    	movl   $0xc3e08948,(%rdi)
    1ba3:	c3                   	retq   

0000000000001ba4 <getval_137>:
    1ba4:	b8 89 c2 91 90       	mov    $0x9091c289,%eax
    1ba9:	c3                   	retq   

0000000000001baa <getval_342>:
    1baa:	b8 c9 d1 90 c3       	mov    $0xc390d1c9,%eax
    1baf:	c3                   	retq   

0000000000001bb0 <getval_375>:
    1bb0:	b8 89 ce 94 c9       	mov    $0xc994ce89,%eax
    1bb5:	c3                   	retq   

0000000000001bb6 <setval_236>:
    1bb6:	c7 07 8b d1 08 d2    	movl   $0xd208d18b,(%rdi)
    1bbc:	c3                   	retq   

0000000000001bbd <getval_455>:
    1bbd:	b8 48 89 e0 94       	mov    $0x94e08948,%eax
    1bc2:	c3                   	retq   

0000000000001bc3 <addval_167>:
    1bc3:	8d 87 a9 c2 c3 8d    	lea    -0x723c3d57(%rdi),%eax
    1bc9:	c3                   	retq   

0000000000001bca <setval_277>:
    1bca:	c7 07 ad 48 89 e0    	movl   $0xe08948ad,(%rdi)
    1bd0:	c3                   	retq   

0000000000001bd1 <addval_127>:
    1bd1:	8d 87 8d ce 84 d2    	lea    -0x2d7b3173(%rdi),%eax
    1bd7:	c3                   	retq   

0000000000001bd8 <getval_425>:
    1bd8:	b8 88 ce 38 c0       	mov    $0xc038ce88,%eax
    1bdd:	c3                   	retq   

0000000000001bde <addval_346>:
    1bde:	8d 87 89 ce 30 c0    	lea    -0x3fcf3177(%rdi),%eax
    1be4:	c3                   	retq   

0000000000001be5 <setval_352>:
    1be5:	c7 07 09 c2 38 c9    	movl   $0xc938c209,(%rdi)
    1beb:	c3                   	retq   

0000000000001bec <getval_117>:
    1bec:	b8 89 c2 38 c9       	mov    $0xc938c289,%eax
    1bf1:	c3                   	retq   

0000000000001bf2 <addval_311>:
    1bf2:	8d 87 89 d1 20 db    	lea    -0x24df2e77(%rdi),%eax
    1bf8:	c3                   	retq   

0000000000001bf9 <setval_490>:
    1bf9:	c7 07 81 d1 90 c3    	movl   $0xc390d181,(%rdi)
    1bff:	c3                   	retq   

0000000000001c00 <getval_150>:
    1c00:	b8 90 89 c2 91       	mov    $0x91c28990,%eax
    1c05:	c3                   	retq   

0000000000001c06 <getval_169>:
    1c06:	b8 68 89 e0 c3       	mov    $0xc3e08968,%eax
    1c0b:	c3                   	retq   

0000000000001c0c <addval_123>:
    1c0c:	8d 87 8d d1 84 c9    	lea    -0x367b2e73(%rdi),%eax
    1c12:	c3                   	retq   

0000000000001c13 <addval_111>:
    1c13:	8d 87 e1 48 a9 e0    	lea    -0x1f56b71f(%rdi),%eax
    1c19:	c3                   	retq   

0000000000001c1a <getval_136>:
    1c1a:	b8 48 8d e0 90       	mov    $0x90e08d48,%eax
    1c1f:	c3                   	retq   

0000000000001c20 <setval_267>:
    1c20:	c7 07 99 ce 20 d2    	movl   $0xd220ce99,(%rdi)
    1c26:	c3                   	retq   

0000000000001c27 <setval_389>:
    1c27:	c7 07 89 c2 28 db    	movl   $0xdb28c289,(%rdi)
    1c2d:	c3                   	retq   

0000000000001c2e <end_farm>:
    1c2e:	b8 01 00 00 00       	mov    $0x1,%eax
    1c33:	c3                   	retq   

0000000000001c34 <save_char>:
    1c34:	8b 05 ca 44 20 00    	mov    0x2044ca(%rip),%eax        # 206104 <gets_cnt>
    1c3a:	3d ff 03 00 00       	cmp    $0x3ff,%eax
    1c3f:	7f 4a                	jg     1c8b <save_char+0x57>
    1c41:	8d 14 40             	lea    (%rax,%rax,2),%edx
    1c44:	89 f9                	mov    %edi,%ecx
    1c46:	c0 e9 04             	shr    $0x4,%cl
    1c49:	4c 8d 05 d0 19 00 00 	lea    0x19d0(%rip),%r8        # 3620 <trans_char>
    1c50:	83 e1 0f             	and    $0xf,%ecx
    1c53:	45 0f b6 0c 08       	movzbl (%r8,%rcx,1),%r9d
    1c58:	48 8d 0d a1 38 20 00 	lea    0x2038a1(%rip),%rcx        # 205500 <gets_buf>
    1c5f:	48 63 f2             	movslq %edx,%rsi
    1c62:	44 88 0c 31          	mov    %r9b,(%rcx,%rsi,1)
    1c66:	8d 72 01             	lea    0x1(%rdx),%esi
    1c69:	83 e7 0f             	and    $0xf,%edi
    1c6c:	41 0f b6 3c 38       	movzbl (%r8,%rdi,1),%edi
    1c71:	48 63 f6             	movslq %esi,%rsi
    1c74:	40 88 3c 31          	mov    %dil,(%rcx,%rsi,1)
    1c78:	83 c2 02             	add    $0x2,%edx
    1c7b:	48 63 d2             	movslq %edx,%rdx
    1c7e:	c6 04 11 20          	movb   $0x20,(%rcx,%rdx,1)
    1c82:	83 c0 01             	add    $0x1,%eax
    1c85:	89 05 79 44 20 00    	mov    %eax,0x204479(%rip)        # 206104 <gets_cnt>
    1c8b:	f3 c3                	repz retq 

0000000000001c8d <save_term>:
    1c8d:	8b 05 71 44 20 00    	mov    0x204471(%rip),%eax        # 206104 <gets_cnt>
    1c93:	8d 04 40             	lea    (%rax,%rax,2),%eax
    1c96:	48 98                	cltq   
    1c98:	48 8d 15 61 38 20 00 	lea    0x203861(%rip),%rdx        # 205500 <gets_buf>
    1c9f:	c6 04 02 00          	movb   $0x0,(%rdx,%rax,1)
    1ca3:	c3                   	retq   

0000000000001ca4 <check_fail>:
    1ca4:	48 83 ec 08          	sub    $0x8,%rsp
    1ca8:	0f be 35 59 44 20 00 	movsbl 0x204459(%rip),%esi        # 206108 <target_prefix>
    1caf:	48 8d 0d 4a 38 20 00 	lea    0x20384a(%rip),%rcx        # 205500 <gets_buf>
    1cb6:	8b 15 1c 38 20 00    	mov    0x20381c(%rip),%edx        # 2054d8 <check_level>
    1cbc:	48 8d 3d 60 16 00 00 	lea    0x1660(%rip),%rdi        # 3323 <_IO_stdin_used+0x383>
    1cc3:	b8 00 00 00 00       	mov    $0x0,%eax
    1cc8:	e8 43 f1 ff ff       	callq  e10 <printf@plt>
    1ccd:	bf 01 00 00 00       	mov    $0x1,%edi
    1cd2:	e8 89 f2 ff ff       	callq  f60 <exit@plt>

0000000000001cd7 <Gets>:
    1cd7:	41 54                	push   %r12
    1cd9:	55                   	push   %rbp
    1cda:	53                   	push   %rbx
    1cdb:	49 89 fc             	mov    %rdi,%r12
    1cde:	c7 05 1c 44 20 00 00 	movl   $0x0,0x20441c(%rip)        # 206104 <gets_cnt>
    1ce5:	00 00 00 
    1ce8:	48 89 fb             	mov    %rdi,%rbx
    1ceb:	eb 11                	jmp    1cfe <Gets+0x27>
    1ced:	48 8d 6b 01          	lea    0x1(%rbx),%rbp
    1cf1:	88 03                	mov    %al,(%rbx)
    1cf3:	0f b6 f8             	movzbl %al,%edi
    1cf6:	e8 39 ff ff ff       	callq  1c34 <save_char>
    1cfb:	48 89 eb             	mov    %rbp,%rbx
    1cfe:	48 8b 3d cb 37 20 00 	mov    0x2037cb(%rip),%rdi        # 2054d0 <infile>
    1d05:	e8 c6 f1 ff ff       	callq  ed0 <_IO_getc@plt>
    1d0a:	83 f8 ff             	cmp    $0xffffffff,%eax
    1d0d:	74 05                	je     1d14 <Gets+0x3d>
    1d0f:	83 f8 0a             	cmp    $0xa,%eax
    1d12:	75 d9                	jne    1ced <Gets+0x16>
    1d14:	c6 03 00             	movb   $0x0,(%rbx)
    1d17:	b8 00 00 00 00       	mov    $0x0,%eax
    1d1c:	e8 6c ff ff ff       	callq  1c8d <save_term>
    1d21:	4c 89 e0             	mov    %r12,%rax
    1d24:	5b                   	pop    %rbx
    1d25:	5d                   	pop    %rbp
    1d26:	41 5c                	pop    %r12
    1d28:	c3                   	retq   

0000000000001d29 <notify_server>:
    1d29:	83 3d b8 37 20 00 00 	cmpl   $0x0,0x2037b8(%rip)        # 2054e8 <is_checker>
    1d30:	0f 85 de 00 00 00    	jne    1e14 <notify_server+0xeb>
    1d36:	55                   	push   %rbp
    1d37:	53                   	push   %rbx
    1d38:	48 81 ec 08 40 00 00 	sub    $0x4008,%rsp
    1d3f:	89 fb                	mov    %edi,%ebx
    1d41:	8b 05 bd 43 20 00    	mov    0x2043bd(%rip),%eax        # 206104 <gets_cnt>
    1d47:	83 c0 64             	add    $0x64,%eax
    1d4a:	3d 00 20 00 00       	cmp    $0x2000,%eax
    1d4f:	0f 8f c1 00 00 00    	jg     1e16 <notify_server+0xed>
    1d55:	44 0f be 0d ab 43 20 	movsbl 0x2043ab(%rip),%r9d        # 206108 <target_prefix>
    1d5c:	00 
    1d5d:	83 3d ec 33 20 00 00 	cmpl   $0x0,0x2033ec(%rip)        # 205150 <notify>
    1d64:	0f 84 c7 00 00 00    	je     1e31 <notify_server+0x108>
    1d6a:	44 8b 05 6f 37 20 00 	mov    0x20376f(%rip),%r8d        # 2054e0 <authkey>
    1d71:	85 db                	test   %ebx,%ebx
    1d73:	0f 84 c3 00 00 00    	je     1e3c <notify_server+0x113>
    1d79:	48 8d 2d b9 15 00 00 	lea    0x15b9(%rip),%rbp        # 3339 <_IO_stdin_used+0x399>
    1d80:	48 8d bc 24 00 20 00 	lea    0x2000(%rsp),%rdi
    1d87:	00 
    1d88:	48 8d 05 71 37 20 00 	lea    0x203771(%rip),%rax        # 205500 <gets_buf>
    1d8f:	50                   	push   %rax
    1d90:	56                   	push   %rsi
    1d91:	48 89 e9             	mov    %rbp,%rcx
    1d94:	8b 15 8e 33 20 00    	mov    0x20338e(%rip),%edx        # 205128 <target_id>
    1d9a:	48 8d 35 a2 15 00 00 	lea    0x15a2(%rip),%rsi        # 3343 <_IO_stdin_used+0x3a3>
    1da1:	b8 00 00 00 00       	mov    $0x0,%eax
    1da6:	e8 a5 f1 ff ff       	callq  f50 <sprintf@plt>
    1dab:	48 83 c4 10          	add    $0x10,%rsp
    1daf:	83 3d 9a 33 20 00 00 	cmpl   $0x0,0x20339a(%rip)        # 205150 <notify>
    1db6:	0f 84 b8 00 00 00    	je     1e74 <notify_server+0x14b>
    1dbc:	85 db                	test   %ebx,%ebx
    1dbe:	0f 84 a2 00 00 00    	je     1e66 <notify_server+0x13d>
    1dc4:	48 8d 8c 24 00 20 00 	lea    0x2000(%rsp),%rcx
    1dcb:	00 
    1dcc:	49 89 e1             	mov    %rsp,%r9
    1dcf:	41 b8 00 00 00 00    	mov    $0x0,%r8d
    1dd5:	48 8b 15 5c 33 20 00 	mov    0x20335c(%rip),%rdx        # 205138 <lab>
    1ddc:	48 8b 35 5d 33 20 00 	mov    0x20335d(%rip),%rsi        # 205140 <course>
    1de3:	48 8b 3d 46 33 20 00 	mov    0x203346(%rip),%rdi        # 205130 <user_id>
    1dea:	e8 6e 10 00 00       	callq  2e5d <driver_post>
    1def:	85 c0                	test   %eax,%eax
    1df1:	78 55                	js     1e48 <notify_server+0x11f>
    1df3:	48 8d 3d 8e 16 00 00 	lea    0x168e(%rip),%rdi        # 3488 <_IO_stdin_used+0x4e8>
    1dfa:	e8 e1 ef ff ff       	callq  de0 <puts@plt>
    1dff:	48 8d 3d 65 15 00 00 	lea    0x1565(%rip),%rdi        # 336b <_IO_stdin_used+0x3cb>
    1e06:	e8 d5 ef ff ff       	callq  de0 <puts@plt>
    1e0b:	48 81 c4 08 40 00 00 	add    $0x4008,%rsp
    1e12:	5b                   	pop    %rbx
    1e13:	5d                   	pop    %rbp
    1e14:	f3 c3                	repz retq 
    1e16:	48 8d 3d 3b 16 00 00 	lea    0x163b(%rip),%rdi        # 3458 <_IO_stdin_used+0x4b8>
    1e1d:	b8 00 00 00 00       	mov    $0x0,%eax
    1e22:	e8 e9 ef ff ff       	callq  e10 <printf@plt>
    1e27:	bf 01 00 00 00       	mov    $0x1,%edi
    1e2c:	e8 2f f1 ff ff       	callq  f60 <exit@plt>
    1e31:	41 b8 ff ff ff ff    	mov    $0xffffffff,%r8d
    1e37:	e9 35 ff ff ff       	jmpq   1d71 <notify_server+0x48>
    1e3c:	48 8d 2d fb 14 00 00 	lea    0x14fb(%rip),%rbp        # 333e <_IO_stdin_used+0x39e>
    1e43:	e9 38 ff ff ff       	jmpq   1d80 <notify_server+0x57>
    1e48:	48 89 e6             	mov    %rsp,%rsi
    1e4b:	48 8d 3d 0d 15 00 00 	lea    0x150d(%rip),%rdi        # 335f <_IO_stdin_used+0x3bf>
    1e52:	b8 00 00 00 00       	mov    $0x0,%eax
    1e57:	e8 b4 ef ff ff       	callq  e10 <printf@plt>
    1e5c:	bf 01 00 00 00       	mov    $0x1,%edi
    1e61:	e8 fa f0 ff ff       	callq  f60 <exit@plt>
    1e66:	48 8d 3d 08 15 00 00 	lea    0x1508(%rip),%rdi        # 3375 <_IO_stdin_used+0x3d5>
    1e6d:	e8 6e ef ff ff       	callq  de0 <puts@plt>
    1e72:	eb 97                	jmp    1e0b <notify_server+0xe2>
    1e74:	48 89 ee             	mov    %rbp,%rsi
    1e77:	48 8d 3d 42 16 00 00 	lea    0x1642(%rip),%rdi        # 34c0 <_IO_stdin_used+0x520>
    1e7e:	b8 00 00 00 00       	mov    $0x0,%eax
    1e83:	e8 88 ef ff ff       	callq  e10 <printf@plt>
    1e88:	48 8b 35 a1 32 20 00 	mov    0x2032a1(%rip),%rsi        # 205130 <user_id>
    1e8f:	48 8d 3d e6 14 00 00 	lea    0x14e6(%rip),%rdi        # 337c <_IO_stdin_used+0x3dc>
    1e96:	b8 00 00 00 00       	mov    $0x0,%eax
    1e9b:	e8 70 ef ff ff       	callq  e10 <printf@plt>
    1ea0:	48 8b 35 99 32 20 00 	mov    0x203299(%rip),%rsi        # 205140 <course>
    1ea7:	48 8d 3d db 14 00 00 	lea    0x14db(%rip),%rdi        # 3389 <_IO_stdin_used+0x3e9>
    1eae:	b8 00 00 00 00       	mov    $0x0,%eax
    1eb3:	e8 58 ef ff ff       	callq  e10 <printf@plt>
    1eb8:	48 8b 35 79 32 20 00 	mov    0x203279(%rip),%rsi        # 205138 <lab>
    1ebf:	48 8d 3d cf 14 00 00 	lea    0x14cf(%rip),%rdi        # 3395 <_IO_stdin_used+0x3f5>
    1ec6:	b8 00 00 00 00       	mov    $0x0,%eax
    1ecb:	e8 40 ef ff ff       	callq  e10 <printf@plt>
    1ed0:	48 8d b4 24 00 20 00 	lea    0x2000(%rsp),%rsi
    1ed7:	00 
    1ed8:	48 8d 3d bf 14 00 00 	lea    0x14bf(%rip),%rdi        # 339e <_IO_stdin_used+0x3fe>
    1edf:	b8 00 00 00 00       	mov    $0x0,%eax
    1ee4:	e8 27 ef ff ff       	callq  e10 <printf@plt>
    1ee9:	e9 1d ff ff ff       	jmpq   1e0b <notify_server+0xe2>

0000000000001eee <validate>:
    1eee:	53                   	push   %rbx
    1eef:	89 fb                	mov    %edi,%ebx
    1ef1:	83 3d f0 35 20 00 00 	cmpl   $0x0,0x2035f0(%rip)        # 2054e8 <is_checker>
    1ef8:	74 68                	je     1f62 <validate+0x74>
    1efa:	39 3d dc 35 20 00    	cmp    %edi,0x2035dc(%rip)        # 2054dc <vlevel>
    1f00:	75 2d                	jne    1f2f <validate+0x41>
    1f02:	8b 35 d0 35 20 00    	mov    0x2035d0(%rip),%esi        # 2054d8 <check_level>
    1f08:	39 f7                	cmp    %esi,%edi
    1f0a:	75 39                	jne    1f45 <validate+0x57>
    1f0c:	0f be 35 f5 41 20 00 	movsbl 0x2041f5(%rip),%esi        # 206108 <target_prefix>
    1f13:	48 8d 0d e6 35 20 00 	lea    0x2035e6(%rip),%rcx        # 205500 <gets_buf>
    1f1a:	89 fa                	mov    %edi,%edx
    1f1c:	48 8d 3d a5 14 00 00 	lea    0x14a5(%rip),%rdi        # 33c8 <_IO_stdin_used+0x428>
    1f23:	b8 00 00 00 00       	mov    $0x0,%eax
    1f28:	e8 e3 ee ff ff       	callq  e10 <printf@plt>
    1f2d:	5b                   	pop    %rbx
    1f2e:	c3                   	retq   
    1f2f:	48 8d 3d 74 14 00 00 	lea    0x1474(%rip),%rdi        # 33aa <_IO_stdin_used+0x40a>
    1f36:	e8 a5 ee ff ff       	callq  de0 <puts@plt>
    1f3b:	b8 00 00 00 00       	mov    $0x0,%eax
    1f40:	e8 5f fd ff ff       	callq  1ca4 <check_fail>
    1f45:	89 fa                	mov    %edi,%edx
    1f47:	48 8d 3d 9a 15 00 00 	lea    0x159a(%rip),%rdi        # 34e8 <_IO_stdin_used+0x548>
    1f4e:	b8 00 00 00 00       	mov    $0x0,%eax
    1f53:	e8 b8 ee ff ff       	callq  e10 <printf@plt>
    1f58:	b8 00 00 00 00       	mov    $0x0,%eax
    1f5d:	e8 42 fd ff ff       	callq  1ca4 <check_fail>
    1f62:	3b 3d 74 35 20 00    	cmp    0x203574(%rip),%edi        # 2054dc <vlevel>
    1f68:	74 1a                	je     1f84 <validate+0x96>
    1f6a:	48 8d 3d 39 14 00 00 	lea    0x1439(%rip),%rdi        # 33aa <_IO_stdin_used+0x40a>
    1f71:	e8 6a ee ff ff       	callq  de0 <puts@plt>
    1f76:	89 de                	mov    %ebx,%esi
    1f78:	bf 00 00 00 00       	mov    $0x0,%edi
    1f7d:	e8 a7 fd ff ff       	callq  1d29 <notify_server>
    1f82:	eb a9                	jmp    1f2d <validate+0x3f>
    1f84:	0f be 15 7d 41 20 00 	movsbl 0x20417d(%rip),%edx        # 206108 <target_prefix>
    1f8b:	89 fe                	mov    %edi,%esi
    1f8d:	48 8d 3d 7c 15 00 00 	lea    0x157c(%rip),%rdi        # 3510 <_IO_stdin_used+0x570>
    1f94:	b8 00 00 00 00       	mov    $0x0,%eax
    1f99:	e8 72 ee ff ff       	callq  e10 <printf@plt>
    1f9e:	89 de                	mov    %ebx,%esi
    1fa0:	bf 01 00 00 00       	mov    $0x1,%edi
    1fa5:	e8 7f fd ff ff       	callq  1d29 <notify_server>
    1faa:	eb 81                	jmp    1f2d <validate+0x3f>

0000000000001fac <fail>:
    1fac:	48 83 ec 08          	sub    $0x8,%rsp
    1fb0:	83 3d 31 35 20 00 00 	cmpl   $0x0,0x203531(%rip)        # 2054e8 <is_checker>
    1fb7:	75 11                	jne    1fca <fail+0x1e>
    1fb9:	89 fe                	mov    %edi,%esi
    1fbb:	bf 00 00 00 00       	mov    $0x0,%edi
    1fc0:	e8 64 fd ff ff       	callq  1d29 <notify_server>
    1fc5:	48 83 c4 08          	add    $0x8,%rsp
    1fc9:	c3                   	retq   
    1fca:	b8 00 00 00 00       	mov    $0x0,%eax
    1fcf:	e8 d0 fc ff ff       	callq  1ca4 <check_fail>

0000000000001fd4 <bushandler>:
    1fd4:	48 83 ec 08          	sub    $0x8,%rsp
    1fd8:	83 3d 09 35 20 00 00 	cmpl   $0x0,0x203509(%rip)        # 2054e8 <is_checker>
    1fdf:	74 16                	je     1ff7 <bushandler+0x23>
    1fe1:	48 8d 3d f5 13 00 00 	lea    0x13f5(%rip),%rdi        # 33dd <_IO_stdin_used+0x43d>
    1fe8:	e8 f3 ed ff ff       	callq  de0 <puts@plt>
    1fed:	b8 00 00 00 00       	mov    $0x0,%eax
    1ff2:	e8 ad fc ff ff       	callq  1ca4 <check_fail>
    1ff7:	48 8d 3d 4a 15 00 00 	lea    0x154a(%rip),%rdi        # 3548 <_IO_stdin_used+0x5a8>
    1ffe:	e8 dd ed ff ff       	callq  de0 <puts@plt>
    2003:	48 8d 3d dd 13 00 00 	lea    0x13dd(%rip),%rdi        # 33e7 <_IO_stdin_used+0x447>
    200a:	e8 d1 ed ff ff       	callq  de0 <puts@plt>
    200f:	be 00 00 00 00       	mov    $0x0,%esi
    2014:	bf 00 00 00 00       	mov    $0x0,%edi
    2019:	e8 0b fd ff ff       	callq  1d29 <notify_server>
    201e:	bf 01 00 00 00       	mov    $0x1,%edi
    2023:	e8 38 ef ff ff       	callq  f60 <exit@plt>

0000000000002028 <seghandler>:
    2028:	48 83 ec 08          	sub    $0x8,%rsp
    202c:	83 3d b5 34 20 00 00 	cmpl   $0x0,0x2034b5(%rip)        # 2054e8 <is_checker>
    2033:	74 16                	je     204b <seghandler+0x23>
    2035:	48 8d 3d c1 13 00 00 	lea    0x13c1(%rip),%rdi        # 33fd <_IO_stdin_used+0x45d>
    203c:	e8 9f ed ff ff       	callq  de0 <puts@plt>
    2041:	b8 00 00 00 00       	mov    $0x0,%eax
    2046:	e8 59 fc ff ff       	callq  1ca4 <check_fail>
    204b:	48 8d 3d 16 15 00 00 	lea    0x1516(%rip),%rdi        # 3568 <_IO_stdin_used+0x5c8>
    2052:	e8 89 ed ff ff       	callq  de0 <puts@plt>
    2057:	48 8d 3d 89 13 00 00 	lea    0x1389(%rip),%rdi        # 33e7 <_IO_stdin_used+0x447>
    205e:	e8 7d ed ff ff       	callq  de0 <puts@plt>
    2063:	be 00 00 00 00       	mov    $0x0,%esi
    2068:	bf 00 00 00 00       	mov    $0x0,%edi
    206d:	e8 b7 fc ff ff       	callq  1d29 <notify_server>
    2072:	bf 01 00 00 00       	mov    $0x1,%edi
    2077:	e8 e4 ee ff ff       	callq  f60 <exit@plt>

000000000000207c <illegalhandler>:
    207c:	48 83 ec 08          	sub    $0x8,%rsp
    2080:	83 3d 61 34 20 00 00 	cmpl   $0x0,0x203461(%rip)        # 2054e8 <is_checker>
    2087:	74 16                	je     209f <illegalhandler+0x23>
    2089:	48 8d 3d 80 13 00 00 	lea    0x1380(%rip),%rdi        # 3410 <_IO_stdin_used+0x470>
    2090:	e8 4b ed ff ff       	callq  de0 <puts@plt>
    2095:	b8 00 00 00 00       	mov    $0x0,%eax
    209a:	e8 05 fc ff ff       	callq  1ca4 <check_fail>
    209f:	48 8d 3d ea 14 00 00 	lea    0x14ea(%rip),%rdi        # 3590 <_IO_stdin_used+0x5f0>
    20a6:	e8 35 ed ff ff       	callq  de0 <puts@plt>
    20ab:	48 8d 3d 35 13 00 00 	lea    0x1335(%rip),%rdi        # 33e7 <_IO_stdin_used+0x447>
    20b2:	e8 29 ed ff ff       	callq  de0 <puts@plt>
    20b7:	be 00 00 00 00       	mov    $0x0,%esi
    20bc:	bf 00 00 00 00       	mov    $0x0,%edi
    20c1:	e8 63 fc ff ff       	callq  1d29 <notify_server>
    20c6:	bf 01 00 00 00       	mov    $0x1,%edi
    20cb:	e8 90 ee ff ff       	callq  f60 <exit@plt>

00000000000020d0 <sigalrmhandler>:
    20d0:	48 83 ec 08          	sub    $0x8,%rsp
    20d4:	83 3d 0d 34 20 00 00 	cmpl   $0x0,0x20340d(%rip)        # 2054e8 <is_checker>
    20db:	74 16                	je     20f3 <sigalrmhandler+0x23>
    20dd:	48 8d 3d 40 13 00 00 	lea    0x1340(%rip),%rdi        # 3424 <_IO_stdin_used+0x484>
    20e4:	e8 f7 ec ff ff       	callq  de0 <puts@plt>
    20e9:	b8 00 00 00 00       	mov    $0x0,%eax
    20ee:	e8 b1 fb ff ff       	callq  1ca4 <check_fail>
    20f3:	be 05 00 00 00       	mov    $0x5,%esi
    20f8:	48 8d 3d c1 14 00 00 	lea    0x14c1(%rip),%rdi        # 35c0 <_IO_stdin_used+0x620>
    20ff:	b8 00 00 00 00       	mov    $0x0,%eax
    2104:	e8 07 ed ff ff       	callq  e10 <printf@plt>
    2109:	be 00 00 00 00       	mov    $0x0,%esi
    210e:	bf 00 00 00 00       	mov    $0x0,%edi
    2113:	e8 11 fc ff ff       	callq  1d29 <notify_server>
    2118:	bf 01 00 00 00       	mov    $0x1,%edi
    211d:	e8 3e ee ff ff       	callq  f60 <exit@plt>

0000000000002122 <launch>:
    2122:	55                   	push   %rbp
    2123:	48 89 e5             	mov    %rsp,%rbp
    2126:	48 89 fa             	mov    %rdi,%rdx
    2129:	48 8d 47 1e          	lea    0x1e(%rdi),%rax
    212d:	48 83 e0 f0          	and    $0xfffffffffffffff0,%rax
    2131:	48 29 c4             	sub    %rax,%rsp
    2134:	48 8d 7c 24 0f       	lea    0xf(%rsp),%rdi
    2139:	48 83 e7 f0          	and    $0xfffffffffffffff0,%rdi
    213d:	be f4 00 00 00       	mov    $0xf4,%esi
    2142:	e8 d9 ec ff ff       	callq  e20 <memset@plt>
    2147:	48 8b 05 12 30 20 00 	mov    0x203012(%rip),%rax        # 205160 <stdin@@GLIBC_2.2.5>
    214e:	48 39 05 7b 33 20 00 	cmp    %rax,0x20337b(%rip)        # 2054d0 <infile>
    2155:	74 2b                	je     2182 <launch+0x60>
    2157:	c7 05 7b 33 20 00 00 	movl   $0x0,0x20337b(%rip)        # 2054dc <vlevel>
    215e:	00 00 00 
    2161:	b8 00 00 00 00       	mov    $0x0,%eax
    2166:	e8 84 f9 ff ff       	callq  1aef <test>
    216b:	83 3d 76 33 20 00 00 	cmpl   $0x0,0x203376(%rip)        # 2054e8 <is_checker>
    2172:	75 21                	jne    2195 <launch+0x73>
    2174:	48 8d 3d c9 12 00 00 	lea    0x12c9(%rip),%rdi        # 3444 <_IO_stdin_used+0x4a4>
    217b:	e8 60 ec ff ff       	callq  de0 <puts@plt>
    2180:	c9                   	leaveq 
    2181:	c3                   	retq   
    2182:	48 8d 3d a3 12 00 00 	lea    0x12a3(%rip),%rdi        # 342c <_IO_stdin_used+0x48c>
    2189:	b8 00 00 00 00       	mov    $0x0,%eax
    218e:	e8 7d ec ff ff       	callq  e10 <printf@plt>
    2193:	eb c2                	jmp    2157 <launch+0x35>
    2195:	48 8d 3d 9d 12 00 00 	lea    0x129d(%rip),%rdi        # 3439 <_IO_stdin_used+0x499>
    219c:	e8 3f ec ff ff       	callq  de0 <puts@plt>
    21a1:	b8 00 00 00 00       	mov    $0x0,%eax
    21a6:	e8 f9 fa ff ff       	callq  1ca4 <check_fail>

00000000000021ab <stable_launch>:
    21ab:	53                   	push   %rbx
    21ac:	48 89 3d 15 33 20 00 	mov    %rdi,0x203315(%rip)        # 2054c8 <global_offset>
    21b3:	41 b9 00 00 00 00    	mov    $0x0,%r9d
    21b9:	41 b8 00 00 00 00    	mov    $0x0,%r8d
    21bf:	b9 32 01 00 00       	mov    $0x132,%ecx
    21c4:	ba 07 00 00 00       	mov    $0x7,%edx
    21c9:	be 00 00 10 00       	mov    $0x100000,%esi
    21ce:	bf 00 60 58 55       	mov    $0x55586000,%edi
    21d3:	e8 28 ec ff ff       	callq  e00 <mmap@plt>
    21d8:	48 89 c3             	mov    %rax,%rbx
    21db:	48 3d 00 60 58 55    	cmp    $0x55586000,%rax
    21e1:	75 43                	jne    2226 <stable_launch+0x7b>
    21e3:	48 8d 90 f8 ff 0f 00 	lea    0xffff8(%rax),%rdx
    21ea:	48 89 15 1f 3f 20 00 	mov    %rdx,0x203f1f(%rip)        # 206110 <stack_top>
    21f1:	48 89 e0             	mov    %rsp,%rax
    21f4:	48 89 d4             	mov    %rdx,%rsp
    21f7:	48 89 c2             	mov    %rax,%rdx
    21fa:	48 89 15 bf 32 20 00 	mov    %rdx,0x2032bf(%rip)        # 2054c0 <global_save_stack>
    2201:	48 8b 3d c0 32 20 00 	mov    0x2032c0(%rip),%rdi        # 2054c8 <global_offset>
    2208:	e8 15 ff ff ff       	callq  2122 <launch>
    220d:	48 8b 05 ac 32 20 00 	mov    0x2032ac(%rip),%rax        # 2054c0 <global_save_stack>
    2214:	48 89 c4             	mov    %rax,%rsp
    2217:	be 00 00 10 00       	mov    $0x100000,%esi
    221c:	48 89 df             	mov    %rbx,%rdi
    221f:	e8 cc ec ff ff       	callq  ef0 <munmap@plt>
    2224:	5b                   	pop    %rbx
    2225:	c3                   	retq   
    2226:	be 00 00 10 00       	mov    $0x100000,%esi
    222b:	48 89 c7             	mov    %rax,%rdi
    222e:	e8 bd ec ff ff       	callq  ef0 <munmap@plt>
    2233:	ba 00 60 58 55       	mov    $0x55586000,%edx
    2238:	48 8d 35 b9 13 00 00 	lea    0x13b9(%rip),%rsi        # 35f8 <_IO_stdin_used+0x658>
    223f:	48 8b 3d 3a 2f 20 00 	mov    0x202f3a(%rip),%rdi        # 205180 <stderr@@GLIBC_2.2.5>
    2246:	b8 00 00 00 00       	mov    $0x0,%eax
    224b:	e8 30 ec ff ff       	callq  e80 <fprintf@plt>
    2250:	bf 01 00 00 00       	mov    $0x1,%edi
    2255:	e8 06 ed ff ff       	callq  f60 <exit@plt>

000000000000225a <rio_readinitb>:
    225a:	89 37                	mov    %esi,(%rdi)
    225c:	c7 47 04 00 00 00 00 	movl   $0x0,0x4(%rdi)
    2263:	48 8d 47 10          	lea    0x10(%rdi),%rax
    2267:	48 89 47 08          	mov    %rax,0x8(%rdi)
    226b:	c3                   	retq   

000000000000226c <sigalrm_handler>:
    226c:	48 83 ec 08          	sub    $0x8,%rsp
    2270:	ba 00 00 00 00       	mov    $0x0,%edx
    2275:	48 8d 35 b4 13 00 00 	lea    0x13b4(%rip),%rsi        # 3630 <trans_char+0x10>
    227c:	48 8b 3d fd 2e 20 00 	mov    0x202efd(%rip),%rdi        # 205180 <stderr@@GLIBC_2.2.5>
    2283:	b8 00 00 00 00       	mov    $0x0,%eax
    2288:	e8 f3 eb ff ff       	callq  e80 <fprintf@plt>
    228d:	bf 01 00 00 00       	mov    $0x1,%edi
    2292:	e8 c9 ec ff ff       	callq  f60 <exit@plt>

0000000000002297 <urlencode>:
    2297:	41 54                	push   %r12
    2299:	55                   	push   %rbp
    229a:	53                   	push   %rbx
    229b:	48 83 ec 10          	sub    $0x10,%rsp
    229f:	48 89 fb             	mov    %rdi,%rbx
    22a2:	48 89 f5             	mov    %rsi,%rbp
    22a5:	b8 00 00 00 00       	mov    $0x0,%eax
    22aa:	48 c7 c1 ff ff ff ff 	mov    $0xffffffffffffffff,%rcx
    22b1:	f2 ae                	repnz scas %es:(%rdi),%al
    22b3:	48 f7 d1             	not    %rcx
    22b6:	8d 41 ff             	lea    -0x1(%rcx),%eax
    22b9:	eb 0e                	jmp    22c9 <urlencode+0x32>
    22bb:	88 55 00             	mov    %dl,0x0(%rbp)
    22be:	48 8d 6d 01          	lea    0x1(%rbp),%rbp
    22c2:	48 83 c3 01          	add    $0x1,%rbx
    22c6:	44 89 e0             	mov    %r12d,%eax
    22c9:	44 8d 60 ff          	lea    -0x1(%rax),%r12d
    22cd:	85 c0                	test   %eax,%eax
    22cf:	0f 84 95 00 00 00    	je     236a <urlencode+0xd3>
    22d5:	0f b6 13             	movzbl (%rbx),%edx
    22d8:	80 fa 2a             	cmp    $0x2a,%dl
    22db:	0f 94 c1             	sete   %cl
    22de:	80 fa 2d             	cmp    $0x2d,%dl
    22e1:	0f 94 c0             	sete   %al
    22e4:	08 c1                	or     %al,%cl
    22e6:	75 d3                	jne    22bb <urlencode+0x24>
    22e8:	80 fa 2e             	cmp    $0x2e,%dl
    22eb:	74 ce                	je     22bb <urlencode+0x24>
    22ed:	80 fa 5f             	cmp    $0x5f,%dl
    22f0:	74 c9                	je     22bb <urlencode+0x24>
    22f2:	8d 42 d0             	lea    -0x30(%rdx),%eax
    22f5:	3c 09                	cmp    $0x9,%al
    22f7:	76 c2                	jbe    22bb <urlencode+0x24>
    22f9:	8d 42 bf             	lea    -0x41(%rdx),%eax
    22fc:	3c 19                	cmp    $0x19,%al
    22fe:	76 bb                	jbe    22bb <urlencode+0x24>
    2300:	8d 42 9f             	lea    -0x61(%rdx),%eax
    2303:	3c 19                	cmp    $0x19,%al
    2305:	76 b4                	jbe    22bb <urlencode+0x24>
    2307:	80 fa 20             	cmp    $0x20,%dl
    230a:	74 4c                	je     2358 <urlencode+0xc1>
    230c:	8d 42 e0             	lea    -0x20(%rdx),%eax
    230f:	3c 5f                	cmp    $0x5f,%al
    2311:	0f 96 c1             	setbe  %cl
    2314:	80 fa 09             	cmp    $0x9,%dl
    2317:	0f 94 c0             	sete   %al
    231a:	08 c1                	or     %al,%cl
    231c:	74 47                	je     2365 <urlencode+0xce>
    231e:	0f b6 d2             	movzbl %dl,%edx
    2321:	48 8d 7c 24 08       	lea    0x8(%rsp),%rdi
    2326:	48 8d 35 9b 13 00 00 	lea    0x139b(%rip),%rsi        # 36c8 <trans_char+0xa8>
    232d:	b8 00 00 00 00       	mov    $0x0,%eax
    2332:	e8 19 ec ff ff       	callq  f50 <sprintf@plt>
    2337:	0f b6 44 24 08       	movzbl 0x8(%rsp),%eax
    233c:	88 45 00             	mov    %al,0x0(%rbp)
    233f:	0f b6 44 24 09       	movzbl 0x9(%rsp),%eax
    2344:	88 45 01             	mov    %al,0x1(%rbp)
    2347:	0f b6 44 24 0a       	movzbl 0xa(%rsp),%eax
    234c:	88 45 02             	mov    %al,0x2(%rbp)
    234f:	48 8d 6d 03          	lea    0x3(%rbp),%rbp
    2353:	e9 6a ff ff ff       	jmpq   22c2 <urlencode+0x2b>
    2358:	c6 45 00 2b          	movb   $0x2b,0x0(%rbp)
    235c:	48 8d 6d 01          	lea    0x1(%rbp),%rbp
    2360:	e9 5d ff ff ff       	jmpq   22c2 <urlencode+0x2b>
    2365:	b8 ff ff ff ff       	mov    $0xffffffff,%eax
    236a:	48 83 c4 10          	add    $0x10,%rsp
    236e:	5b                   	pop    %rbx
    236f:	5d                   	pop    %rbp
    2370:	41 5c                	pop    %r12
    2372:	c3                   	retq   

0000000000002373 <rio_writen>:
    2373:	41 55                	push   %r13
    2375:	41 54                	push   %r12
    2377:	55                   	push   %rbp
    2378:	53                   	push   %rbx
    2379:	48 83 ec 08          	sub    $0x8,%rsp
    237d:	41 89 fc             	mov    %edi,%r12d
    2380:	49 89 d5             	mov    %rdx,%r13
    2383:	48 89 f5             	mov    %rsi,%rbp
    2386:	48 89 d3             	mov    %rdx,%rbx
    2389:	eb 06                	jmp    2391 <rio_writen+0x1e>
    238b:	48 29 c3             	sub    %rax,%rbx
    238e:	48 01 c5             	add    %rax,%rbp
    2391:	48 85 db             	test   %rbx,%rbx
    2394:	74 24                	je     23ba <rio_writen+0x47>
    2396:	48 89 da             	mov    %rbx,%rdx
    2399:	48 89 ee             	mov    %rbp,%rsi
    239c:	44 89 e7             	mov    %r12d,%edi
    239f:	e8 4c ea ff ff       	callq  df0 <write@plt>
    23a4:	48 85 c0             	test   %rax,%rax
    23a7:	7f e2                	jg     238b <rio_writen+0x18>
    23a9:	e8 f2 e9 ff ff       	callq  da0 <__errno_location@plt>
    23ae:	83 38 04             	cmpl   $0x4,(%rax)
    23b1:	75 15                	jne    23c8 <rio_writen+0x55>
    23b3:	b8 00 00 00 00       	mov    $0x0,%eax
    23b8:	eb d1                	jmp    238b <rio_writen+0x18>
    23ba:	4c 89 e8             	mov    %r13,%rax
    23bd:	48 83 c4 08          	add    $0x8,%rsp
    23c1:	5b                   	pop    %rbx
    23c2:	5d                   	pop    %rbp
    23c3:	41 5c                	pop    %r12
    23c5:	41 5d                	pop    %r13
    23c7:	c3                   	retq   
    23c8:	48 c7 c0 ff ff ff ff 	mov    $0xffffffffffffffff,%rax
    23cf:	eb ec                	jmp    23bd <rio_writen+0x4a>

00000000000023d1 <rio_read>:
    23d1:	41 55                	push   %r13
    23d3:	41 54                	push   %r12
    23d5:	55                   	push   %rbp
    23d6:	53                   	push   %rbx
    23d7:	48 83 ec 08          	sub    $0x8,%rsp
    23db:	48 89 fb             	mov    %rdi,%rbx
    23de:	49 89 f5             	mov    %rsi,%r13
    23e1:	49 89 d4             	mov    %rdx,%r12
    23e4:	eb 0a                	jmp    23f0 <rio_read+0x1f>
    23e6:	e8 b5 e9 ff ff       	callq  da0 <__errno_location@plt>
    23eb:	83 38 04             	cmpl   $0x4,(%rax)
    23ee:	75 5c                	jne    244c <rio_read+0x7b>
    23f0:	8b 6b 04             	mov    0x4(%rbx),%ebp
    23f3:	85 ed                	test   %ebp,%ebp
    23f5:	7f 24                	jg     241b <rio_read+0x4a>
    23f7:	48 8d 6b 10          	lea    0x10(%rbx),%rbp
    23fb:	ba 00 20 00 00       	mov    $0x2000,%edx
    2400:	48 89 ee             	mov    %rbp,%rsi
    2403:	8b 3b                	mov    (%rbx),%edi
    2405:	e8 46 ea ff ff       	callq  e50 <read@plt>
    240a:	89 43 04             	mov    %eax,0x4(%rbx)
    240d:	85 c0                	test   %eax,%eax
    240f:	78 d5                	js     23e6 <rio_read+0x15>
    2411:	85 c0                	test   %eax,%eax
    2413:	74 40                	je     2455 <rio_read+0x84>
    2415:	48 89 6b 08          	mov    %rbp,0x8(%rbx)
    2419:	eb d5                	jmp    23f0 <rio_read+0x1f>
    241b:	89 e8                	mov    %ebp,%eax
    241d:	49 39 c4             	cmp    %rax,%r12
    2420:	77 03                	ja     2425 <rio_read+0x54>
    2422:	44 89 e5             	mov    %r12d,%ebp
    2425:	4c 63 e5             	movslq %ebp,%r12
    2428:	48 8b 73 08          	mov    0x8(%rbx),%rsi
    242c:	4c 89 e2             	mov    %r12,%rdx
    242f:	4c 89 ef             	mov    %r13,%rdi
    2432:	e8 69 ea ff ff       	callq  ea0 <memcpy@plt>
    2437:	4c 01 63 08          	add    %r12,0x8(%rbx)
    243b:	29 6b 04             	sub    %ebp,0x4(%rbx)
    243e:	4c 89 e0             	mov    %r12,%rax
    2441:	48 83 c4 08          	add    $0x8,%rsp
    2445:	5b                   	pop    %rbx
    2446:	5d                   	pop    %rbp
    2447:	41 5c                	pop    %r12
    2449:	41 5d                	pop    %r13
    244b:	c3                   	retq   
    244c:	48 c7 c0 ff ff ff ff 	mov    $0xffffffffffffffff,%rax
    2453:	eb ec                	jmp    2441 <rio_read+0x70>
    2455:	b8 00 00 00 00       	mov    $0x0,%eax
    245a:	eb e5                	jmp    2441 <rio_read+0x70>

000000000000245c <rio_readlineb>:
    245c:	41 55                	push   %r13
    245e:	41 54                	push   %r12
    2460:	55                   	push   %rbp
    2461:	53                   	push   %rbx
    2462:	48 83 ec 18          	sub    $0x18,%rsp
    2466:	49 89 fd             	mov    %rdi,%r13
    2469:	49 89 d4             	mov    %rdx,%r12
    246c:	48 89 f5             	mov    %rsi,%rbp
    246f:	bb 01 00 00 00       	mov    $0x1,%ebx
    2474:	4c 39 e3             	cmp    %r12,%rbx
    2477:	73 47                	jae    24c0 <rio_readlineb+0x64>
    2479:	48 8d 74 24 0f       	lea    0xf(%rsp),%rsi
    247e:	ba 01 00 00 00       	mov    $0x1,%edx
    2483:	4c 89 ef             	mov    %r13,%rdi
    2486:	e8 46 ff ff ff       	callq  23d1 <rio_read>
    248b:	83 f8 01             	cmp    $0x1,%eax
    248e:	75 1c                	jne    24ac <rio_readlineb+0x50>
    2490:	48 8d 45 01          	lea    0x1(%rbp),%rax
    2494:	0f b6 54 24 0f       	movzbl 0xf(%rsp),%edx
    2499:	88 55 00             	mov    %dl,0x0(%rbp)
    249c:	80 7c 24 0f 0a       	cmpb   $0xa,0xf(%rsp)
    24a1:	74 1a                	je     24bd <rio_readlineb+0x61>
    24a3:	48 83 c3 01          	add    $0x1,%rbx
    24a7:	48 89 c5             	mov    %rax,%rbp
    24aa:	eb c8                	jmp    2474 <rio_readlineb+0x18>
    24ac:	85 c0                	test   %eax,%eax
    24ae:	75 22                	jne    24d2 <rio_readlineb+0x76>
    24b0:	48 83 fb 01          	cmp    $0x1,%rbx
    24b4:	75 0a                	jne    24c0 <rio_readlineb+0x64>
    24b6:	b8 00 00 00 00       	mov    $0x0,%eax
    24bb:	eb 0a                	jmp    24c7 <rio_readlineb+0x6b>
    24bd:	48 89 c5             	mov    %rax,%rbp
    24c0:	c6 45 00 00          	movb   $0x0,0x0(%rbp)
    24c4:	48 89 d8             	mov    %rbx,%rax
    24c7:	48 83 c4 18          	add    $0x18,%rsp
    24cb:	5b                   	pop    %rbx
    24cc:	5d                   	pop    %rbp
    24cd:	41 5c                	pop    %r12
    24cf:	41 5d                	pop    %r13
    24d1:	c3                   	retq   
    24d2:	48 c7 c0 ff ff ff ff 	mov    $0xffffffffffffffff,%rax
    24d9:	eb ec                	jmp    24c7 <rio_readlineb+0x6b>

00000000000024db <submitr>:
    24db:	41 57                	push   %r15
    24dd:	41 56                	push   %r14
    24df:	41 55                	push   %r13
    24e1:	41 54                	push   %r12
    24e3:	55                   	push   %rbp
    24e4:	53                   	push   %rbx
    24e5:	48 81 ec 58 a0 00 00 	sub    $0xa058,%rsp
    24ec:	49 89 fd             	mov    %rdi,%r13
    24ef:	89 74 24 14          	mov    %esi,0x14(%rsp)
    24f3:	49 89 d7             	mov    %rdx,%r15
    24f6:	48 89 4c 24 08       	mov    %rcx,0x8(%rsp)
    24fb:	4c 89 44 24 18       	mov    %r8,0x18(%rsp)
    2500:	4d 89 ce             	mov    %r9,%r14
    2503:	48 8b 9c 24 90 a0 00 	mov    0xa090(%rsp),%rbx
    250a:	00 
    250b:	c7 84 24 2c 20 00 00 	movl   $0x0,0x202c(%rsp)
    2512:	00 00 00 00 
    2516:	ba 00 00 00 00       	mov    $0x0,%edx
    251b:	be 01 00 00 00       	mov    $0x1,%esi
    2520:	bf 02 00 00 00       	mov    $0x2,%edi
    2525:	e8 56 ea ff ff       	callq  f80 <socket@plt>
    252a:	85 c0                	test   %eax,%eax
    252c:	0f 88 ca 01 00 00    	js     26fc <submitr+0x221>
    2532:	89 c5                	mov    %eax,%ebp
    2534:	4c 89 ef             	mov    %r13,%rdi
    2537:	e8 34 e9 ff ff       	callq  e70 <gethostbyname@plt>
    253c:	48 85 c0             	test   %rax,%rax
    253f:	0f 84 05 02 00 00    	je     274a <submitr+0x26f>
    2545:	4c 8d a4 24 40 a0 00 	lea    0xa040(%rsp),%r12
    254c:	00 
    254d:	48 c7 84 24 40 a0 00 	movq   $0x0,0xa040(%rsp)
    2554:	00 00 00 00 00 
    2559:	48 c7 84 24 48 a0 00 	movq   $0x0,0xa048(%rsp)
    2560:	00 00 00 00 00 
    2565:	66 c7 84 24 40 a0 00 	movw   $0x2,0xa040(%rsp)
    256c:	00 02 00 
    256f:	48 8b 48 18          	mov    0x18(%rax),%rcx
    2573:	48 63 50 14          	movslq 0x14(%rax),%rdx
    2577:	48 8d b4 24 44 a0 00 	lea    0xa044(%rsp),%rsi
    257e:	00 
    257f:	48 8b 39             	mov    (%rcx),%rdi
    2582:	e8 79 e9 ff ff       	callq  f00 <bcopy@plt>
    2587:	0f b7 44 24 14       	movzwl 0x14(%rsp),%eax
    258c:	66 c1 c8 08          	ror    $0x8,%ax
    2590:	66 89 84 24 42 a0 00 	mov    %ax,0xa042(%rsp)
    2597:	00 
    2598:	ba 10 00 00 00       	mov    $0x10,%edx
    259d:	4c 89 e6             	mov    %r12,%rsi
    25a0:	89 ef                	mov    %ebp,%edi
    25a2:	e8 c9 e9 ff ff       	callq  f70 <connect@plt>
    25a7:	85 c0                	test   %eax,%eax
    25a9:	0f 88 02 02 00 00    	js     27b1 <submitr+0x2d6>
    25af:	48 c7 c6 ff ff ff ff 	mov    $0xffffffffffffffff,%rsi
    25b6:	b8 00 00 00 00       	mov    $0x0,%eax
    25bb:	48 89 f1             	mov    %rsi,%rcx
    25be:	4c 89 f7             	mov    %r14,%rdi
    25c1:	f2 ae                	repnz scas %es:(%rdi),%al
    25c3:	48 f7 d1             	not    %rcx
    25c6:	48 89 ca             	mov    %rcx,%rdx
    25c9:	48 89 f1             	mov    %rsi,%rcx
    25cc:	4c 89 ff             	mov    %r15,%rdi
    25cf:	f2 ae                	repnz scas %es:(%rdi),%al
    25d1:	48 f7 d1             	not    %rcx
    25d4:	49 89 c8             	mov    %rcx,%r8
    25d7:	48 89 f1             	mov    %rsi,%rcx
    25da:	48 8b 7c 24 08       	mov    0x8(%rsp),%rdi
    25df:	f2 ae                	repnz scas %es:(%rdi),%al
    25e1:	48 f7 d1             	not    %rcx
    25e4:	4d 8d 44 08 fe       	lea    -0x2(%r8,%rcx,1),%r8
    25e9:	48 89 f1             	mov    %rsi,%rcx
    25ec:	48 8b 7c 24 18       	mov    0x18(%rsp),%rdi
    25f1:	f2 ae                	repnz scas %es:(%rdi),%al
    25f3:	48 89 c8             	mov    %rcx,%rax
    25f6:	48 f7 d0             	not    %rax
    25f9:	49 8d 4c 00 ff       	lea    -0x1(%r8,%rax,1),%rcx
    25fe:	48 8d 44 52 fd       	lea    -0x3(%rdx,%rdx,2),%rax
    2603:	48 8d 84 01 80 00 00 	lea    0x80(%rcx,%rax,1),%rax
    260a:	00 
    260b:	48 3d 00 20 00 00    	cmp    $0x2000,%rax
    2611:	0f 87 f3 01 00 00    	ja     280a <submitr+0x32f>
    2617:	48 8d b4 24 30 40 00 	lea    0x4030(%rsp),%rsi
    261e:	00 
    261f:	b9 00 04 00 00       	mov    $0x400,%ecx
    2624:	b8 00 00 00 00       	mov    $0x0,%eax
    2629:	48 89 f7             	mov    %rsi,%rdi
    262c:	f3 48 ab             	rep stos %rax,%es:(%rdi)
    262f:	4c 89 f7             	mov    %r14,%rdi
    2632:	e8 60 fc ff ff       	callq  2297 <urlencode>
    2637:	85 c0                	test   %eax,%eax
    2639:	0f 88 3d 02 00 00    	js     287c <submitr+0x3a1>
    263f:	4c 8d a4 24 30 60 00 	lea    0x6030(%rsp),%r12
    2646:	00 
    2647:	4d 89 e9             	mov    %r13,%r9
    264a:	4c 8d 84 24 30 40 00 	lea    0x4030(%rsp),%r8
    2651:	00 
    2652:	4c 89 f9             	mov    %r15,%rcx
    2655:	48 8b 54 24 08       	mov    0x8(%rsp),%rdx
    265a:	48 8d 35 f7 0f 00 00 	lea    0xff7(%rip),%rsi        # 3658 <trans_char+0x38>
    2661:	4c 89 e7             	mov    %r12,%rdi
    2664:	b8 00 00 00 00       	mov    $0x0,%eax
    2669:	e8 e2 e8 ff ff       	callq  f50 <sprintf@plt>
    266e:	b8 00 00 00 00       	mov    $0x0,%eax
    2673:	48 c7 c1 ff ff ff ff 	mov    $0xffffffffffffffff,%rcx
    267a:	4c 89 e7             	mov    %r12,%rdi
    267d:	f2 ae                	repnz scas %es:(%rdi),%al
    267f:	48 f7 d1             	not    %rcx
    2682:	48 8d 51 ff          	lea    -0x1(%rcx),%rdx
    2686:	4c 89 e6             	mov    %r12,%rsi
    2689:	89 ef                	mov    %ebp,%edi
    268b:	e8 e3 fc ff ff       	callq  2373 <rio_writen>
    2690:	48 85 c0             	test   %rax,%rax
    2693:	0f 88 6d 02 00 00    	js     2906 <submitr+0x42b>
    2699:	4c 8d a4 24 30 80 00 	lea    0x8030(%rsp),%r12
    26a0:	00 
    26a1:	89 ee                	mov    %ebp,%esi
    26a3:	4c 89 e7             	mov    %r12,%rdi
    26a6:	e8 af fb ff ff       	callq  225a <rio_readinitb>
    26ab:	48 8d b4 24 30 60 00 	lea    0x6030(%rsp),%rsi
    26b2:	00 
    26b3:	ba 00 20 00 00       	mov    $0x2000,%edx
    26b8:	4c 89 e7             	mov    %r12,%rdi
    26bb:	e8 9c fd ff ff       	callq  245c <rio_readlineb>
    26c0:	48 85 c0             	test   %rax,%rax
    26c3:	0f 8e ab 02 00 00    	jle    2974 <submitr+0x499>
    26c9:	48 8d 8c 24 2c 20 00 	lea    0x202c(%rsp),%rcx
    26d0:	00 
    26d1:	48 8d 94 24 30 20 00 	lea    0x2030(%rsp),%rdx
    26d8:	00 
    26d9:	48 8d bc 24 30 60 00 	lea    0x6030(%rsp),%rdi
    26e0:	00 
    26e1:	4c 8d 44 24 20       	lea    0x20(%rsp),%r8
    26e6:	48 8d 35 e2 0f 00 00 	lea    0xfe2(%rip),%rsi        # 36cf <trans_char+0xaf>
    26ed:	b8 00 00 00 00       	mov    $0x0,%eax
    26f2:	e8 e9 e7 ff ff       	callq  ee0 <__isoc99_sscanf@plt>
    26f7:	e9 9f 03 00 00       	jmpq   2a9b <submitr+0x5c0>
    26fc:	48 b8 45 72 72 6f 72 	movabs $0x43203a726f727245,%rax
    2703:	3a 20 43 
    2706:	48 89 03             	mov    %rax,(%rbx)
    2709:	48 b8 6c 69 65 6e 74 	movabs $0x6e7520746e65696c,%rax
    2710:	20 75 6e 
    2713:	48 89 43 08          	mov    %rax,0x8(%rbx)
    2717:	48 b8 61 62 6c 65 20 	movabs $0x206f7420656c6261,%rax
    271e:	74 6f 20 
    2721:	48 89 43 10          	mov    %rax,0x10(%rbx)
    2725:	48 b8 63 72 65 61 74 	movabs $0x7320657461657263,%rax
    272c:	65 20 73 
    272f:	48 89 43 18          	mov    %rax,0x18(%rbx)
    2733:	c7 43 20 6f 63 6b 65 	movl   $0x656b636f,0x20(%rbx)
    273a:	66 c7 43 24 74 00    	movw   $0x74,0x24(%rbx)
    2740:	b8 ff ff ff ff       	mov    $0xffffffff,%eax
    2745:	e9 18 03 00 00       	jmpq   2a62 <submitr+0x587>
    274a:	48 b8 45 72 72 6f 72 	movabs $0x44203a726f727245,%rax
    2751:	3a 20 44 
    2754:	48 89 03             	mov    %rax,(%rbx)
    2757:	48 b8 4e 53 20 69 73 	movabs $0x6e7520736920534e,%rax
    275e:	20 75 6e 
    2761:	48 89 43 08          	mov    %rax,0x8(%rbx)
    2765:	48 b8 61 62 6c 65 20 	movabs $0x206f7420656c6261,%rax
    276c:	74 6f 20 
    276f:	48 89 43 10          	mov    %rax,0x10(%rbx)
    2773:	48 b8 72 65 73 6f 6c 	movabs $0x2065766c6f736572,%rax
    277a:	76 65 20 
    277d:	48 89 43 18          	mov    %rax,0x18(%rbx)
    2781:	48 b8 73 65 72 76 65 	movabs $0x6120726576726573,%rax
    2788:	72 20 61 
    278b:	48 89 43 20          	mov    %rax,0x20(%rbx)
    278f:	c7 43 28 64 64 72 65 	movl   $0x65726464,0x28(%rbx)
    2796:	66 c7 43 2c 73 73    	movw   $0x7373,0x2c(%rbx)
    279c:	c6 43 2e 00          	movb   $0x0,0x2e(%rbx)
    27a0:	89 ef                	mov    %ebp,%edi
    27a2:	e8 99 e6 ff ff       	callq  e40 <close@plt>
    27a7:	b8 ff ff ff ff       	mov    $0xffffffff,%eax
    27ac:	e9 b1 02 00 00       	jmpq   2a62 <submitr+0x587>
    27b1:	48 b8 45 72 72 6f 72 	movabs $0x55203a726f727245,%rax
    27b8:	3a 20 55 
    27bb:	48 89 03             	mov    %rax,(%rbx)
    27be:	48 b8 6e 61 62 6c 65 	movabs $0x6f7420656c62616e,%rax
    27c5:	20 74 6f 
    27c8:	48 89 43 08          	mov    %rax,0x8(%rbx)
    27cc:	48 b8 20 63 6f 6e 6e 	movabs $0x7463656e6e6f6320,%rax
    27d3:	65 63 74 
    27d6:	48 89 43 10          	mov    %rax,0x10(%rbx)
    27da:	48 b8 20 74 6f 20 74 	movabs $0x20656874206f7420,%rax
    27e1:	68 65 20 
    27e4:	48 89 43 18          	mov    %rax,0x18(%rbx)
    27e8:	c7 43 20 73 65 72 76 	movl   $0x76726573,0x20(%rbx)
    27ef:	66 c7 43 24 65 72    	movw   $0x7265,0x24(%rbx)
    27f5:	c6 43 26 00          	movb   $0x0,0x26(%rbx)
    27f9:	89 ef                	mov    %ebp,%edi
    27fb:	e8 40 e6 ff ff       	callq  e40 <close@plt>
    2800:	b8 ff ff ff ff       	mov    $0xffffffff,%eax
    2805:	e9 58 02 00 00       	jmpq   2a62 <submitr+0x587>
    280a:	48 b8 45 72 72 6f 72 	movabs $0x52203a726f727245,%rax
    2811:	3a 20 52 
    2814:	48 89 03             	mov    %rax,(%rbx)
    2817:	48 b8 65 73 75 6c 74 	movabs $0x747320746c757365,%rax
    281e:	20 73 74 
    2821:	48 89 43 08          	mov    %rax,0x8(%rbx)
    2825:	48 b8 72 69 6e 67 20 	movabs $0x6f6f7420676e6972,%rax
    282c:	74 6f 6f 
    282f:	48 89 43 10          	mov    %rax,0x10(%rbx)
    2833:	48 b8 20 6c 61 72 67 	movabs $0x202e656772616c20,%rax
    283a:	65 2e 20 
    283d:	48 89 43 18          	mov    %rax,0x18(%rbx)
    2841:	48 b8 49 6e 63 72 65 	movabs $0x6573616572636e49,%rax
    2848:	61 73 65 
    284b:	48 89 43 20          	mov    %rax,0x20(%rbx)
    284f:	48 b8 20 53 55 42 4d 	movabs $0x5254494d42555320,%rax
    2856:	49 54 52 
    2859:	48 89 43 28          	mov    %rax,0x28(%rbx)
    285d:	48 b8 5f 4d 41 58 42 	movabs $0x46554258414d5f,%rax
    2864:	55 46 00 
    2867:	48 89 43 30          	mov    %rax,0x30(%rbx)
    286b:	89 ef                	mov    %ebp,%edi
    286d:	e8 ce e5 ff ff       	callq  e40 <close@plt>
    2872:	b8 ff ff ff ff       	mov    $0xffffffff,%eax
    2877:	e9 e6 01 00 00       	jmpq   2a62 <submitr+0x587>
    287c:	48 b8 45 72 72 6f 72 	movabs $0x52203a726f727245,%rax
    2883:	3a 20 52 
    2886:	48 89 03             	mov    %rax,(%rbx)
    2889:	48 b8 65 73 75 6c 74 	movabs $0x747320746c757365,%rax
    2890:	20 73 74 
    2893:	48 89 43 08          	mov    %rax,0x8(%rbx)
    2897:	48 b8 72 69 6e 67 20 	movabs $0x6e6f6320676e6972,%rax
    289e:	63 6f 6e 
    28a1:	48 89 43 10          	mov    %rax,0x10(%rbx)
    28a5:	48 b8 74 61 69 6e 73 	movabs $0x6e6120736e696174,%rax
    28ac:	20 61 6e 
    28af:	48 89 43 18          	mov    %rax,0x18(%rbx)
    28b3:	48 b8 20 69 6c 6c 65 	movabs $0x6c6167656c6c6920,%rax
    28ba:	67 61 6c 
    28bd:	48 89 43 20          	mov    %rax,0x20(%rbx)
    28c1:	48 b8 20 6f 72 20 75 	movabs $0x72706e7520726f20,%rax
    28c8:	6e 70 72 
    28cb:	48 89 43 28          	mov    %rax,0x28(%rbx)
    28cf:	48 b8 69 6e 74 61 62 	movabs $0x20656c6261746e69,%rax
    28d6:	6c 65 20 
    28d9:	48 89 43 30          	mov    %rax,0x30(%rbx)
    28dd:	48 b8 63 68 61 72 61 	movabs $0x6574636172616863,%rax
    28e4:	63 74 65 
    28e7:	48 89 43 38          	mov    %rax,0x38(%rbx)
    28eb:	66 c7 43 40 72 2e    	movw   $0x2e72,0x40(%rbx)
    28f1:	c6 43 42 00          	movb   $0x0,0x42(%rbx)
    28f5:	89 ef                	mov    %ebp,%edi
    28f7:	e8 44 e5 ff ff       	callq  e40 <close@plt>
    28fc:	b8 ff ff ff ff       	mov    $0xffffffff,%eax
    2901:	e9 5c 01 00 00       	jmpq   2a62 <submitr+0x587>
    2906:	48 b8 45 72 72 6f 72 	movabs $0x43203a726f727245,%rax
    290d:	3a 20 43 
    2910:	48 89 03             	mov    %rax,(%rbx)
    2913:	48 b8 6c 69 65 6e 74 	movabs $0x6e7520746e65696c,%rax
    291a:	20 75 6e 
    291d:	48 89 43 08          	mov    %rax,0x8(%rbx)
    2921:	48 b8 61 62 6c 65 20 	movabs $0x206f7420656c6261,%rax
    2928:	74 6f 20 
    292b:	48 89 43 10          	mov    %rax,0x10(%rbx)
    292f:	48 b8 77 72 69 74 65 	movabs $0x6f74206574697277,%rax
    2936:	20 74 6f 
    2939:	48 89 43 18          	mov    %rax,0x18(%rbx)
    293d:	48 b8 20 74 68 65 20 	movabs $0x7365722065687420,%rax
    2944:	72 65 73 
    2947:	48 89 43 20          	mov    %rax,0x20(%rbx)
    294b:	48 b8 75 6c 74 20 73 	movabs $0x7672657320746c75,%rax
    2952:	65 72 76 
    2955:	48 89 43 28          	mov    %rax,0x28(%rbx)
    2959:	66 c7 43 30 65 72    	movw   $0x7265,0x30(%rbx)
    295f:	c6 43 32 00          	movb   $0x0,0x32(%rbx)
    2963:	89 ef                	mov    %ebp,%edi
    2965:	e8 d6 e4 ff ff       	callq  e40 <close@plt>
    296a:	b8 ff ff ff ff       	mov    $0xffffffff,%eax
    296f:	e9 ee 00 00 00       	jmpq   2a62 <submitr+0x587>
    2974:	48 b8 45 72 72 6f 72 	movabs $0x43203a726f727245,%rax
    297b:	3a 20 43 
    297e:	48 89 03             	mov    %rax,(%rbx)
    2981:	48 b8 6c 69 65 6e 74 	movabs $0x6e7520746e65696c,%rax
    2988:	20 75 6e 
    298b:	48 89 43 08          	mov    %rax,0x8(%rbx)
    298f:	48 b8 61 62 6c 65 20 	movabs $0x206f7420656c6261,%rax
    2996:	74 6f 20 
    2999:	48 89 43 10          	mov    %rax,0x10(%rbx)
    299d:	48 b8 72 65 61 64 20 	movabs $0x7269662064616572,%rax
    29a4:	66 69 72 
    29a7:	48 89 43 18          	mov    %rax,0x18(%rbx)
    29ab:	48 b8 73 74 20 68 65 	movabs $0x6564616568207473,%rax
    29b2:	61 64 65 
    29b5:	48 89 43 20          	mov    %rax,0x20(%rbx)
    29b9:	48 b8 72 20 66 72 6f 	movabs $0x72206d6f72662072,%rax
    29c0:	6d 20 72 
    29c3:	48 89 43 28          	mov    %rax,0x28(%rbx)
    29c7:	48 b8 65 73 75 6c 74 	movabs $0x657320746c757365,%rax
    29ce:	20 73 65 
    29d1:	48 89 43 30          	mov    %rax,0x30(%rbx)
    29d5:	c7 43 38 72 76 65 72 	movl   $0x72657672,0x38(%rbx)
    29dc:	c6 43 3c 00          	movb   $0x0,0x3c(%rbx)
    29e0:	89 ef                	mov    %ebp,%edi
    29e2:	e8 59 e4 ff ff       	callq  e40 <close@plt>
    29e7:	b8 ff ff ff ff       	mov    $0xffffffff,%eax
    29ec:	eb 74                	jmp    2a62 <submitr+0x587>
    29ee:	48 b8 45 72 72 6f 72 	movabs $0x43203a726f727245,%rax
    29f5:	3a 20 43 
    29f8:	48 89 03             	mov    %rax,(%rbx)
    29fb:	48 b8 6c 69 65 6e 74 	movabs $0x6e7520746e65696c,%rax
    2a02:	20 75 6e 
    2a05:	48 89 43 08          	mov    %rax,0x8(%rbx)
    2a09:	48 b8 61 62 6c 65 20 	movabs $0x206f7420656c6261,%rax
    2a10:	74 6f 20 
    2a13:	48 89 43 10          	mov    %rax,0x10(%rbx)
    2a17:	48 b8 72 65 61 64 20 	movabs $0x6165682064616572,%rax
    2a1e:	68 65 61 
    2a21:	48 89 43 18          	mov    %rax,0x18(%rbx)
    2a25:	48 b8 64 65 72 73 20 	movabs $0x6f72662073726564,%rax
    2a2c:	66 72 6f 
    2a2f:	48 89 43 20          	mov    %rax,0x20(%rbx)
    2a33:	48 b8 6d 20 74 68 65 	movabs $0x657220656874206d,%rax
    2a3a:	20 72 65 
    2a3d:	48 89 43 28          	mov    %rax,0x28(%rbx)
    2a41:	48 b8 73 75 6c 74 20 	movabs $0x72657320746c7573,%rax
    2a48:	73 65 72 
    2a4b:	48 89 43 30          	mov    %rax,0x30(%rbx)
    2a4f:	c7 43 38 76 65 72 00 	movl   $0x726576,0x38(%rbx)
    2a56:	89 ef                	mov    %ebp,%edi
    2a58:	e8 e3 e3 ff ff       	callq  e40 <close@plt>
    2a5d:	b8 ff ff ff ff       	mov    $0xffffffff,%eax
    2a62:	48 81 c4 58 a0 00 00 	add    $0xa058,%rsp
    2a69:	5b                   	pop    %rbx
    2a6a:	5d                   	pop    %rbp
    2a6b:	41 5c                	pop    %r12
    2a6d:	41 5d                	pop    %r13
    2a6f:	41 5e                	pop    %r14
    2a71:	41 5f                	pop    %r15
    2a73:	c3                   	retq   
    2a74:	85 c0                	test   %eax,%eax
    2a76:	74 51                	je     2ac9 <submitr+0x5ee>
    2a78:	48 8d b4 24 30 60 00 	lea    0x6030(%rsp),%rsi
    2a7f:	00 
    2a80:	48 8d bc 24 30 80 00 	lea    0x8030(%rsp),%rdi
    2a87:	00 
    2a88:	ba 00 20 00 00       	mov    $0x2000,%edx
    2a8d:	e8 ca f9 ff ff       	callq  245c <rio_readlineb>
    2a92:	48 85 c0             	test   %rax,%rax
    2a95:	0f 8e 53 ff ff ff    	jle    29ee <submitr+0x513>
    2a9b:	0f b6 94 24 30 60 00 	movzbl 0x6030(%rsp),%edx
    2aa2:	00 
    2aa3:	b8 0d 00 00 00       	mov    $0xd,%eax
    2aa8:	29 d0                	sub    %edx,%eax
    2aaa:	75 c8                	jne    2a74 <submitr+0x599>
    2aac:	0f b6 94 24 31 60 00 	movzbl 0x6031(%rsp),%edx
    2ab3:	00 
    2ab4:	b8 0a 00 00 00       	mov    $0xa,%eax
    2ab9:	29 d0                	sub    %edx,%eax
    2abb:	75 b7                	jne    2a74 <submitr+0x599>
    2abd:	0f b6 84 24 32 60 00 	movzbl 0x6032(%rsp),%eax
    2ac4:	00 
    2ac5:	f7 d8                	neg    %eax
    2ac7:	eb ab                	jmp    2a74 <submitr+0x599>
    2ac9:	48 8d b4 24 30 60 00 	lea    0x6030(%rsp),%rsi
    2ad0:	00 
    2ad1:	48 8d bc 24 30 80 00 	lea    0x8030(%rsp),%rdi
    2ad8:	00 
    2ad9:	ba 00 20 00 00       	mov    $0x2000,%edx
    2ade:	e8 79 f9 ff ff       	callq  245c <rio_readlineb>
    2ae3:	48 85 c0             	test   %rax,%rax
    2ae6:	7e 67                	jle    2b4f <submitr+0x674>
    2ae8:	8b 94 24 2c 20 00 00 	mov    0x202c(%rsp),%edx
    2aef:	81 fa c8 00 00 00    	cmp    $0xc8,%edx
    2af5:	0f 85 d7 00 00 00    	jne    2bd2 <submitr+0x6f7>
    2afb:	48 8d b4 24 30 60 00 	lea    0x6030(%rsp),%rsi
    2b02:	00 
    2b03:	48 89 df             	mov    %rbx,%rdi
    2b06:	e8 c5 e2 ff ff       	callq  dd0 <strcpy@plt>
    2b0b:	89 ef                	mov    %ebp,%edi
    2b0d:	e8 2e e3 ff ff       	callq  e40 <close@plt>
    2b12:	0f b6 03             	movzbl (%rbx),%eax
    2b15:	ba 4f 00 00 00       	mov    $0x4f,%edx
    2b1a:	29 c2                	sub    %eax,%edx
    2b1c:	0f 85 da 00 00 00    	jne    2bfc <submitr+0x721>
    2b22:	0f b6 4b 01          	movzbl 0x1(%rbx),%ecx
    2b26:	b8 4b 00 00 00       	mov    $0x4b,%eax
    2b2b:	29 c8                	sub    %ecx,%eax
    2b2d:	0f 85 cb 00 00 00    	jne    2bfe <submitr+0x723>
    2b33:	0f b6 4b 02          	movzbl 0x2(%rbx),%ecx
    2b37:	b8 0a 00 00 00       	mov    $0xa,%eax
    2b3c:	29 c8                	sub    %ecx,%eax
    2b3e:	0f 85 ba 00 00 00    	jne    2bfe <submitr+0x723>
    2b44:	0f b6 43 03          	movzbl 0x3(%rbx),%eax
    2b48:	f7 d8                	neg    %eax
    2b4a:	e9 af 00 00 00       	jmpq   2bfe <submitr+0x723>
    2b4f:	48 b8 45 72 72 6f 72 	movabs $0x43203a726f727245,%rax
    2b56:	3a 20 43 
    2b59:	48 89 03             	mov    %rax,(%rbx)
    2b5c:	48 b8 6c 69 65 6e 74 	movabs $0x6e7520746e65696c,%rax
    2b63:	20 75 6e 
    2b66:	48 89 43 08          	mov    %rax,0x8(%rbx)
    2b6a:	48 b8 61 62 6c 65 20 	movabs $0x206f7420656c6261,%rax
    2b71:	74 6f 20 
    2b74:	48 89 43 10          	mov    %rax,0x10(%rbx)
    2b78:	48 b8 72 65 61 64 20 	movabs $0x6174732064616572,%rax
    2b7f:	73 74 61 
    2b82:	48 89 43 18          	mov    %rax,0x18(%rbx)
    2b86:	48 b8 74 75 73 20 6d 	movabs $0x7373656d20737574,%rax
    2b8d:	65 73 73 
    2b90:	48 89 43 20          	mov    %rax,0x20(%rbx)
    2b94:	48 b8 61 67 65 20 66 	movabs $0x6d6f726620656761,%rax
    2b9b:	72 6f 6d 
    2b9e:	48 89 43 28          	mov    %rax,0x28(%rbx)
    2ba2:	48 b8 20 72 65 73 75 	movabs $0x20746c7573657220,%rax
    2ba9:	6c 74 20 
    2bac:	48 89 43 30          	mov    %rax,0x30(%rbx)
    2bb0:	c7 43 38 73 65 72 76 	movl   $0x76726573,0x38(%rbx)
    2bb7:	66 c7 43 3c 65 72    	movw   $0x7265,0x3c(%rbx)
    2bbd:	c6 43 3e 00          	movb   $0x0,0x3e(%rbx)
    2bc1:	89 ef                	mov    %ebp,%edi
    2bc3:	e8 78 e2 ff ff       	callq  e40 <close@plt>
    2bc8:	b8 ff ff ff ff       	mov    $0xffffffff,%eax
    2bcd:	e9 90 fe ff ff       	jmpq   2a62 <submitr+0x587>
    2bd2:	48 8d 4c 24 20       	lea    0x20(%rsp),%rcx
    2bd7:	48 8d 35 ba 0a 00 00 	lea    0xaba(%rip),%rsi        # 3698 <trans_char+0x78>
    2bde:	48 89 df             	mov    %rbx,%rdi
    2be1:	b8 00 00 00 00       	mov    $0x0,%eax
    2be6:	e8 65 e3 ff ff       	callq  f50 <sprintf@plt>
    2beb:	89 ef                	mov    %ebp,%edi
    2bed:	e8 4e e2 ff ff       	callq  e40 <close@plt>
    2bf2:	b8 ff ff ff ff       	mov    $0xffffffff,%eax
    2bf7:	e9 66 fe ff ff       	jmpq   2a62 <submitr+0x587>
    2bfc:	89 d0                	mov    %edx,%eax
    2bfe:	f7 d8                	neg    %eax
    2c00:	0f 84 5c fe ff ff    	je     2a62 <submitr+0x587>
    2c06:	b9 05 00 00 00       	mov    $0x5,%ecx
    2c0b:	48 8d 3d ce 0a 00 00 	lea    0xace(%rip),%rdi        # 36e0 <trans_char+0xc0>
    2c12:	48 89 de             	mov    %rbx,%rsi
    2c15:	f3 a6                	repz cmpsb %es:(%rdi),%ds:(%rsi)
    2c17:	0f 97 c0             	seta   %al
    2c1a:	0f 92 c1             	setb   %cl
    2c1d:	29 c8                	sub    %ecx,%eax
    2c1f:	0f be c0             	movsbl %al,%eax
    2c22:	85 c0                	test   %eax,%eax
    2c24:	0f 84 38 fe ff ff    	je     2a62 <submitr+0x587>
    2c2a:	85 d2                	test   %edx,%edx
    2c2c:	75 13                	jne    2c41 <submitr+0x766>
    2c2e:	0f b6 43 01          	movzbl 0x1(%rbx),%eax
    2c32:	ba 4b 00 00 00       	mov    $0x4b,%edx
    2c37:	29 c2                	sub    %eax,%edx
    2c39:	75 06                	jne    2c41 <submitr+0x766>
    2c3b:	0f b6 53 02          	movzbl 0x2(%rbx),%edx
    2c3f:	f7 da                	neg    %edx
    2c41:	89 d0                	mov    %edx,%eax
    2c43:	f7 d8                	neg    %eax
    2c45:	0f 84 17 fe ff ff    	je     2a62 <submitr+0x587>
    2c4b:	b8 ff ff ff ff       	mov    $0xffffffff,%eax
    2c50:	e9 0d fe ff ff       	jmpq   2a62 <submitr+0x587>

0000000000002c55 <init_timeout>:
    2c55:	85 ff                	test   %edi,%edi
    2c57:	74 20                	je     2c79 <init_timeout+0x24>
    2c59:	53                   	push   %rbx
    2c5a:	89 fb                	mov    %edi,%ebx
    2c5c:	85 ff                	test   %edi,%edi
    2c5e:	78 1b                	js     2c7b <init_timeout+0x26>
    2c60:	48 8d 35 05 f6 ff ff 	lea    -0x9fb(%rip),%rsi        # 226c <sigalrm_handler>
    2c67:	bf 0e 00 00 00       	mov    $0xe,%edi
    2c6c:	e8 ef e1 ff ff       	callq  e60 <signal@plt>
    2c71:	89 df                	mov    %ebx,%edi
    2c73:	e8 b8 e1 ff ff       	callq  e30 <alarm@plt>
    2c78:	5b                   	pop    %rbx
    2c79:	f3 c3                	repz retq 
    2c7b:	bb 00 00 00 00       	mov    $0x0,%ebx
    2c80:	eb de                	jmp    2c60 <init_timeout+0xb>

0000000000002c82 <init_driver>:
    2c82:	41 54                	push   %r12
    2c84:	55                   	push   %rbp
    2c85:	53                   	push   %rbx
    2c86:	48 83 ec 10          	sub    $0x10,%rsp
    2c8a:	48 89 fd             	mov    %rdi,%rbp
    2c8d:	be 01 00 00 00       	mov    $0x1,%esi
    2c92:	bf 0d 00 00 00       	mov    $0xd,%edi
    2c97:	e8 c4 e1 ff ff       	callq  e60 <signal@plt>
    2c9c:	be 01 00 00 00       	mov    $0x1,%esi
    2ca1:	bf 1d 00 00 00       	mov    $0x1d,%edi
    2ca6:	e8 b5 e1 ff ff       	callq  e60 <signal@plt>
    2cab:	be 01 00 00 00       	mov    $0x1,%esi
    2cb0:	bf 1d 00 00 00       	mov    $0x1d,%edi
    2cb5:	e8 a6 e1 ff ff       	callq  e60 <signal@plt>
    2cba:	ba 00 00 00 00       	mov    $0x0,%edx
    2cbf:	be 01 00 00 00       	mov    $0x1,%esi
    2cc4:	bf 02 00 00 00       	mov    $0x2,%edi
    2cc9:	e8 b2 e2 ff ff       	callq  f80 <socket@plt>
    2cce:	85 c0                	test   %eax,%eax
    2cd0:	0f 88 80 00 00 00    	js     2d56 <init_driver+0xd4>
    2cd6:	89 c3                	mov    %eax,%ebx
    2cd8:	48 8d 3d 06 0a 00 00 	lea    0xa06(%rip),%rdi        # 36e5 <trans_char+0xc5>
    2cdf:	e8 8c e1 ff ff       	callq  e70 <gethostbyname@plt>
    2ce4:	48 85 c0             	test   %rax,%rax
    2ce7:	0f 84 b5 00 00 00    	je     2da2 <init_driver+0x120>
    2ced:	48 c7 04 24 00 00 00 	movq   $0x0,(%rsp)
    2cf4:	00 
    2cf5:	48 c7 44 24 08 00 00 	movq   $0x0,0x8(%rsp)
    2cfc:	00 00 
    2cfe:	66 c7 04 24 02 00    	movw   $0x2,(%rsp)
    2d04:	48 8b 48 18          	mov    0x18(%rax),%rcx
    2d08:	48 63 50 14          	movslq 0x14(%rax),%rdx
    2d0c:	48 8d 74 24 04       	lea    0x4(%rsp),%rsi
    2d11:	48 8b 39             	mov    (%rcx),%rdi
    2d14:	e8 e7 e1 ff ff       	callq  f00 <bcopy@plt>
    2d19:	66 c7 44 24 02 3c 9a 	movw   $0x9a3c,0x2(%rsp)
    2d20:	ba 10 00 00 00       	mov    $0x10,%edx
    2d25:	48 89 e6             	mov    %rsp,%rsi
    2d28:	89 df                	mov    %ebx,%edi
    2d2a:	e8 41 e2 ff ff       	callq  f70 <connect@plt>
    2d2f:	85 c0                	test   %eax,%eax
    2d31:	0f 88 d3 00 00 00    	js     2e0a <init_driver+0x188>
    2d37:	89 df                	mov    %ebx,%edi
    2d39:	e8 02 e1 ff ff       	callq  e40 <close@plt>
    2d3e:	66 c7 45 00 4f 4b    	movw   $0x4b4f,0x0(%rbp)
    2d44:	c6 45 02 00          	movb   $0x0,0x2(%rbp)
    2d48:	b8 00 00 00 00       	mov    $0x0,%eax
    2d4d:	48 83 c4 10          	add    $0x10,%rsp
    2d51:	5b                   	pop    %rbx
    2d52:	5d                   	pop    %rbp
    2d53:	41 5c                	pop    %r12
    2d55:	c3                   	retq   
    2d56:	48 b8 45 72 72 6f 72 	movabs $0x43203a726f727245,%rax
    2d5d:	3a 20 43 
    2d60:	48 89 45 00          	mov    %rax,0x0(%rbp)
    2d64:	48 b8 6c 69 65 6e 74 	movabs $0x6e7520746e65696c,%rax
    2d6b:	20 75 6e 
    2d6e:	48 89 45 08          	mov    %rax,0x8(%rbp)
    2d72:	48 b8 61 62 6c 65 20 	movabs $0x206f7420656c6261,%rax
    2d79:	74 6f 20 
    2d7c:	48 89 45 10          	mov    %rax,0x10(%rbp)
    2d80:	48 b8 63 72 65 61 74 	movabs $0x7320657461657263,%rax
    2d87:	65 20 73 
    2d8a:	48 89 45 18          	mov    %rax,0x18(%rbp)
    2d8e:	c7 45 20 6f 63 6b 65 	movl   $0x656b636f,0x20(%rbp)
    2d95:	66 c7 45 24 74 00    	movw   $0x74,0x24(%rbp)
    2d9b:	b8 ff ff ff ff       	mov    $0xffffffff,%eax
    2da0:	eb ab                	jmp    2d4d <init_driver+0xcb>
    2da2:	48 b8 45 72 72 6f 72 	movabs $0x44203a726f727245,%rax
    2da9:	3a 20 44 
    2dac:	48 89 45 00          	mov    %rax,0x0(%rbp)
    2db0:	48 b8 4e 53 20 69 73 	movabs $0x6e7520736920534e,%rax
    2db7:	20 75 6e 
    2dba:	48 89 45 08          	mov    %rax,0x8(%rbp)
    2dbe:	48 b8 61 62 6c 65 20 	movabs $0x206f7420656c6261,%rax
    2dc5:	74 6f 20 
    2dc8:	48 89 45 10          	mov    %rax,0x10(%rbp)
    2dcc:	48 b8 72 65 73 6f 6c 	movabs $0x2065766c6f736572,%rax
    2dd3:	76 65 20 
    2dd6:	48 89 45 18          	mov    %rax,0x18(%rbp)
    2dda:	48 b8 73 65 72 76 65 	movabs $0x6120726576726573,%rax
    2de1:	72 20 61 
    2de4:	48 89 45 20          	mov    %rax,0x20(%rbp)
    2de8:	c7 45 28 64 64 72 65 	movl   $0x65726464,0x28(%rbp)
    2def:	66 c7 45 2c 73 73    	movw   $0x7373,0x2c(%rbp)
    2df5:	c6 45 2e 00          	movb   $0x0,0x2e(%rbp)
    2df9:	89 df                	mov    %ebx,%edi
    2dfb:	e8 40 e0 ff ff       	callq  e40 <close@plt>
    2e00:	b8 ff ff ff ff       	mov    $0xffffffff,%eax
    2e05:	e9 43 ff ff ff       	jmpq   2d4d <init_driver+0xcb>
    2e0a:	48 b8 45 72 72 6f 72 	movabs $0x55203a726f727245,%rax
    2e11:	3a 20 55 
    2e14:	48 89 45 00          	mov    %rax,0x0(%rbp)
    2e18:	48 b8 6e 61 62 6c 65 	movabs $0x6f7420656c62616e,%rax
    2e1f:	20 74 6f 
    2e22:	48 89 45 08          	mov    %rax,0x8(%rbp)
    2e26:	48 b8 20 63 6f 6e 6e 	movabs $0x7463656e6e6f6320,%rax
    2e2d:	65 63 74 
    2e30:	48 89 45 10          	mov    %rax,0x10(%rbp)
    2e34:	48 b8 20 74 6f 20 73 	movabs $0x76726573206f7420,%rax
    2e3b:	65 72 76 
    2e3e:	48 89 45 18          	mov    %rax,0x18(%rbp)
    2e42:	66 c7 45 20 65 72    	movw   $0x7265,0x20(%rbp)
    2e48:	c6 45 22 00          	movb   $0x0,0x22(%rbp)
    2e4c:	89 df                	mov    %ebx,%edi
    2e4e:	e8 ed df ff ff       	callq  e40 <close@plt>
    2e53:	b8 ff ff ff ff       	mov    $0xffffffff,%eax
    2e58:	e9 f0 fe ff ff       	jmpq   2d4d <init_driver+0xcb>

0000000000002e5d <driver_post>:
    2e5d:	53                   	push   %rbx
    2e5e:	4c 89 cb             	mov    %r9,%rbx
    2e61:	45 85 c0             	test   %r8d,%r8d
    2e64:	75 18                	jne    2e7e <driver_post+0x21>
    2e66:	48 85 ff             	test   %rdi,%rdi
    2e69:	74 05                	je     2e70 <driver_post+0x13>
    2e6b:	80 3f 00             	cmpb   $0x0,(%rdi)
    2e6e:	75 32                	jne    2ea2 <driver_post+0x45>
    2e70:	66 c7 03 4f 4b       	movw   $0x4b4f,(%rbx)
    2e75:	c6 43 02 00          	movb   $0x0,0x2(%rbx)
    2e79:	44 89 c0             	mov    %r8d,%eax
    2e7c:	5b                   	pop    %rbx
    2e7d:	c3                   	retq   
    2e7e:	48 89 ce             	mov    %rcx,%rsi
    2e81:	48 8d 3d 6b 08 00 00 	lea    0x86b(%rip),%rdi        # 36f3 <trans_char+0xd3>
    2e88:	b8 00 00 00 00       	mov    $0x0,%eax
    2e8d:	e8 7e df ff ff       	callq  e10 <printf@plt>
    2e92:	66 c7 03 4f 4b       	movw   $0x4b4f,(%rbx)
    2e97:	c6 43 02 00          	movb   $0x0,0x2(%rbx)
    2e9b:	b8 00 00 00 00       	mov    $0x0,%eax
    2ea0:	eb da                	jmp    2e7c <driver_post+0x1f>
    2ea2:	48 83 ec 08          	sub    $0x8,%rsp
    2ea6:	41 51                	push   %r9
    2ea8:	49 89 c9             	mov    %rcx,%r9
    2eab:	49 89 d0             	mov    %rdx,%r8
    2eae:	48 89 f9             	mov    %rdi,%rcx
    2eb1:	48 89 f2             	mov    %rsi,%rdx
    2eb4:	be 9a 3c 00 00       	mov    $0x3c9a,%esi
    2eb9:	48 8d 3d 25 08 00 00 	lea    0x825(%rip),%rdi        # 36e5 <trans_char+0xc5>
    2ec0:	e8 16 f6 ff ff       	callq  24db <submitr>
    2ec5:	48 83 c4 10          	add    $0x10,%rsp
    2ec9:	eb b1                	jmp    2e7c <driver_post+0x1f>

0000000000002ecb <check>:
    2ecb:	89 f8                	mov    %edi,%eax
    2ecd:	c1 e8 1c             	shr    $0x1c,%eax
    2ed0:	85 c0                	test   %eax,%eax
    2ed2:	74 1d                	je     2ef1 <check+0x26>
    2ed4:	b9 00 00 00 00       	mov    $0x0,%ecx
    2ed9:	83 f9 1f             	cmp    $0x1f,%ecx
    2edc:	7f 0d                	jg     2eeb <check+0x20>
    2ede:	89 f8                	mov    %edi,%eax
    2ee0:	d3 e8                	shr    %cl,%eax
    2ee2:	3c 0a                	cmp    $0xa,%al
    2ee4:	74 11                	je     2ef7 <check+0x2c>
    2ee6:	83 c1 08             	add    $0x8,%ecx
    2ee9:	eb ee                	jmp    2ed9 <check+0xe>
    2eeb:	b8 01 00 00 00       	mov    $0x1,%eax
    2ef0:	c3                   	retq   
    2ef1:	b8 00 00 00 00       	mov    $0x0,%eax
    2ef6:	c3                   	retq   
    2ef7:	b8 00 00 00 00       	mov    $0x0,%eax
    2efc:	c3                   	retq   

0000000000002efd <gencookie>:
    2efd:	53                   	push   %rbx
    2efe:	83 c7 01             	add    $0x1,%edi
    2f01:	e8 aa de ff ff       	callq  db0 <srandom@plt>
    2f06:	e8 b5 df ff ff       	callq  ec0 <random@plt>
    2f0b:	89 c3                	mov    %eax,%ebx
    2f0d:	89 c7                	mov    %eax,%edi
    2f0f:	e8 b7 ff ff ff       	callq  2ecb <check>
    2f14:	85 c0                	test   %eax,%eax
    2f16:	74 ee                	je     2f06 <gencookie+0x9>
    2f18:	89 d8                	mov    %ebx,%eax
    2f1a:	5b                   	pop    %rbx
    2f1b:	c3                   	retq   
    2f1c:	0f 1f 40 00          	nopl   0x0(%rax)

0000000000002f20 <__libc_csu_init>:
    2f20:	41 57                	push   %r15
    2f22:	41 56                	push   %r14
    2f24:	41 89 ff             	mov    %edi,%r15d
    2f27:	41 55                	push   %r13
    2f29:	41 54                	push   %r12
    2f2b:	4c 8d 25 a6 1e 20 00 	lea    0x201ea6(%rip),%r12        # 204dd8 <__frame_dummy_init_array_entry>
    2f32:	55                   	push   %rbp
    2f33:	48 8d 2d a6 1e 20 00 	lea    0x201ea6(%rip),%rbp        # 204de0 <__init_array_end>
    2f3a:	53                   	push   %rbx
    2f3b:	49 89 f6             	mov    %rsi,%r14
    2f3e:	49 89 d5             	mov    %rdx,%r13
    2f41:	4c 29 e5             	sub    %r12,%rbp
    2f44:	48 83 ec 08          	sub    $0x8,%rsp
    2f48:	48 c1 fd 03          	sar    $0x3,%rbp
    2f4c:	e8 0f de ff ff       	callq  d60 <_init>
    2f51:	48 85 ed             	test   %rbp,%rbp
    2f54:	74 20                	je     2f76 <__libc_csu_init+0x56>
    2f56:	31 db                	xor    %ebx,%ebx
    2f58:	0f 1f 84 00 00 00 00 	nopl   0x0(%rax,%rax,1)
    2f5f:	00 
    2f60:	4c 89 ea             	mov    %r13,%rdx
    2f63:	4c 89 f6             	mov    %r14,%rsi
    2f66:	44 89 ff             	mov    %r15d,%edi
    2f69:	41 ff 14 dc          	callq  *(%r12,%rbx,8)
    2f6d:	48 83 c3 01          	add    $0x1,%rbx
    2f71:	48 39 dd             	cmp    %rbx,%rbp
    2f74:	75 ea                	jne    2f60 <__libc_csu_init+0x40>
    2f76:	48 83 c4 08          	add    $0x8,%rsp
    2f7a:	5b                   	pop    %rbx
    2f7b:	5d                   	pop    %rbp
    2f7c:	41 5c                	pop    %r12
    2f7e:	41 5d                	pop    %r13
    2f80:	41 5e                	pop    %r14
    2f82:	41 5f                	pop    %r15
    2f84:	c3                   	retq   
    2f85:	90                   	nop
    2f86:	66 2e 0f 1f 84 00 00 	nopw   %cs:0x0(%rax,%rax,1)
    2f8d:	00 00 00 

0000000000002f90 <__libc_csu_fini>:
    2f90:	f3 c3                	repz retq 

Disassembly of section .fini:

0000000000002f94 <_fini>:
    2f94:	48 83 ec 08          	sub    $0x8,%rsp
    2f98:	48 83 c4 08          	add    $0x8,%rsp
    2f9c:	c3                   	retq   
