
ctarget:     file format elf64-x86-64


Disassembly of section .init:

0000000000000d60 <_init>:
 d60:	48 83 ec 08          	sub    $0x8,%rsp
 d64:	48 8b 05 75 32 20 00 	mov    0x203275(%rip),%rax        # 203fe0 <__gmon_start__>
 d6b:	48 85 c0             	test   %rax,%rax
 d6e:	74 02                	je     d72 <_init+0x12>
 d70:	ff d0                	callq  *%rax
 d72:	48 83 c4 08          	add    $0x8,%rsp
 d76:	c3                   	retq   

Disassembly of section .plt:

0000000000000d80 <.plt>:
 d80:	ff 35 82 32 20 00    	pushq  0x203282(%rip)        # 204008 <_GLOBAL_OFFSET_TABLE_+0x8>
 d86:	ff 25 84 32 20 00    	jmpq   *0x203284(%rip)        # 204010 <_GLOBAL_OFFSET_TABLE_+0x10>
 d8c:	0f 1f 40 00          	nopl   0x0(%rax)

0000000000000d90 <strcasecmp@plt>:
 d90:	ff 25 82 32 20 00    	jmpq   *0x203282(%rip)        # 204018 <strcasecmp@GLIBC_2.2.5>
 d96:	68 00 00 00 00       	pushq  $0x0
 d9b:	e9 e0 ff ff ff       	jmpq   d80 <.plt>

0000000000000da0 <__errno_location@plt>:
 da0:	ff 25 7a 32 20 00    	jmpq   *0x20327a(%rip)        # 204020 <__errno_location@GLIBC_2.2.5>
 da6:	68 01 00 00 00       	pushq  $0x1
 dab:	e9 d0 ff ff ff       	jmpq   d80 <.plt>

0000000000000db0 <srandom@plt>:
 db0:	ff 25 72 32 20 00    	jmpq   *0x203272(%rip)        # 204028 <srandom@GLIBC_2.2.5>
 db6:	68 02 00 00 00       	pushq  $0x2
 dbb:	e9 c0 ff ff ff       	jmpq   d80 <.plt>

0000000000000dc0 <strncmp@plt>:
 dc0:	ff 25 6a 32 20 00    	jmpq   *0x20326a(%rip)        # 204030 <strncmp@GLIBC_2.2.5>
 dc6:	68 03 00 00 00       	pushq  $0x3
 dcb:	e9 b0 ff ff ff       	jmpq   d80 <.plt>

0000000000000dd0 <strcpy@plt>:
 dd0:	ff 25 62 32 20 00    	jmpq   *0x203262(%rip)        # 204038 <strcpy@GLIBC_2.2.5>
 dd6:	68 04 00 00 00       	pushq  $0x4
 ddb:	e9 a0 ff ff ff       	jmpq   d80 <.plt>

0000000000000de0 <puts@plt>:
 de0:	ff 25 5a 32 20 00    	jmpq   *0x20325a(%rip)        # 204040 <puts@GLIBC_2.2.5>
 de6:	68 05 00 00 00       	pushq  $0x5
 deb:	e9 90 ff ff ff       	jmpq   d80 <.plt>

0000000000000df0 <write@plt>:
 df0:	ff 25 52 32 20 00    	jmpq   *0x203252(%rip)        # 204048 <write@GLIBC_2.2.5>
 df6:	68 06 00 00 00       	pushq  $0x6
 dfb:	e9 80 ff ff ff       	jmpq   d80 <.plt>

0000000000000e00 <mmap@plt>:
 e00:	ff 25 4a 32 20 00    	jmpq   *0x20324a(%rip)        # 204050 <mmap@GLIBC_2.2.5>
 e06:	68 07 00 00 00       	pushq  $0x7
 e0b:	e9 70 ff ff ff       	jmpq   d80 <.plt>

0000000000000e10 <printf@plt>:
 e10:	ff 25 42 32 20 00    	jmpq   *0x203242(%rip)        # 204058 <printf@GLIBC_2.2.5>
 e16:	68 08 00 00 00       	pushq  $0x8
 e1b:	e9 60 ff ff ff       	jmpq   d80 <.plt>

0000000000000e20 <memset@plt>:
 e20:	ff 25 3a 32 20 00    	jmpq   *0x20323a(%rip)        # 204060 <memset@GLIBC_2.2.5>
 e26:	68 09 00 00 00       	pushq  $0x9
 e2b:	e9 50 ff ff ff       	jmpq   d80 <.plt>

0000000000000e30 <alarm@plt>:
 e30:	ff 25 32 32 20 00    	jmpq   *0x203232(%rip)        # 204068 <alarm@GLIBC_2.2.5>
 e36:	68 0a 00 00 00       	pushq  $0xa
 e3b:	e9 40 ff ff ff       	jmpq   d80 <.plt>

0000000000000e40 <close@plt>:
 e40:	ff 25 2a 32 20 00    	jmpq   *0x20322a(%rip)        # 204070 <close@GLIBC_2.2.5>
 e46:	68 0b 00 00 00       	pushq  $0xb
 e4b:	e9 30 ff ff ff       	jmpq   d80 <.plt>

0000000000000e50 <read@plt>:
 e50:	ff 25 22 32 20 00    	jmpq   *0x203222(%rip)        # 204078 <read@GLIBC_2.2.5>
 e56:	68 0c 00 00 00       	pushq  $0xc
 e5b:	e9 20 ff ff ff       	jmpq   d80 <.plt>

0000000000000e60 <signal@plt>:
 e60:	ff 25 1a 32 20 00    	jmpq   *0x20321a(%rip)        # 204080 <signal@GLIBC_2.2.5>
 e66:	68 0d 00 00 00       	pushq  $0xd
 e6b:	e9 10 ff ff ff       	jmpq   d80 <.plt>

0000000000000e70 <gethostbyname@plt>:
 e70:	ff 25 12 32 20 00    	jmpq   *0x203212(%rip)        # 204088 <gethostbyname@GLIBC_2.2.5>
 e76:	68 0e 00 00 00       	pushq  $0xe
 e7b:	e9 00 ff ff ff       	jmpq   d80 <.plt>

0000000000000e80 <fprintf@plt>:
 e80:	ff 25 0a 32 20 00    	jmpq   *0x20320a(%rip)        # 204090 <fprintf@GLIBC_2.2.5>
 e86:	68 0f 00 00 00       	pushq  $0xf
 e8b:	e9 f0 fe ff ff       	jmpq   d80 <.plt>

0000000000000e90 <strtol@plt>:
 e90:	ff 25 02 32 20 00    	jmpq   *0x203202(%rip)        # 204098 <strtol@GLIBC_2.2.5>
 e96:	68 10 00 00 00       	pushq  $0x10
 e9b:	e9 e0 fe ff ff       	jmpq   d80 <.plt>

0000000000000ea0 <memcpy@plt>:
 ea0:	ff 25 fa 31 20 00    	jmpq   *0x2031fa(%rip)        # 2040a0 <memcpy@GLIBC_2.14>
 ea6:	68 11 00 00 00       	pushq  $0x11
 eab:	e9 d0 fe ff ff       	jmpq   d80 <.plt>

0000000000000eb0 <time@plt>:
 eb0:	ff 25 f2 31 20 00    	jmpq   *0x2031f2(%rip)        # 2040a8 <time@GLIBC_2.2.5>
 eb6:	68 12 00 00 00       	pushq  $0x12
 ebb:	e9 c0 fe ff ff       	jmpq   d80 <.plt>

0000000000000ec0 <random@plt>:
 ec0:	ff 25 ea 31 20 00    	jmpq   *0x2031ea(%rip)        # 2040b0 <random@GLIBC_2.2.5>
 ec6:	68 13 00 00 00       	pushq  $0x13
 ecb:	e9 b0 fe ff ff       	jmpq   d80 <.plt>

0000000000000ed0 <_IO_getc@plt>:
 ed0:	ff 25 e2 31 20 00    	jmpq   *0x2031e2(%rip)        # 2040b8 <_IO_getc@GLIBC_2.2.5>
 ed6:	68 14 00 00 00       	pushq  $0x14
 edb:	e9 a0 fe ff ff       	jmpq   d80 <.plt>

0000000000000ee0 <__isoc99_sscanf@plt>:
 ee0:	ff 25 da 31 20 00    	jmpq   *0x2031da(%rip)        # 2040c0 <__isoc99_sscanf@GLIBC_2.7>
 ee6:	68 15 00 00 00       	pushq  $0x15
 eeb:	e9 90 fe ff ff       	jmpq   d80 <.plt>

0000000000000ef0 <munmap@plt>:
 ef0:	ff 25 d2 31 20 00    	jmpq   *0x2031d2(%rip)        # 2040c8 <munmap@GLIBC_2.2.5>
 ef6:	68 16 00 00 00       	pushq  $0x16
 efb:	e9 80 fe ff ff       	jmpq   d80 <.plt>

0000000000000f00 <bcopy@plt>:
 f00:	ff 25 ca 31 20 00    	jmpq   *0x2031ca(%rip)        # 2040d0 <bcopy@GLIBC_2.2.5>
 f06:	68 17 00 00 00       	pushq  $0x17
 f0b:	e9 70 fe ff ff       	jmpq   d80 <.plt>

0000000000000f10 <fopen@plt>:
 f10:	ff 25 c2 31 20 00    	jmpq   *0x2031c2(%rip)        # 2040d8 <fopen@GLIBC_2.2.5>
 f16:	68 18 00 00 00       	pushq  $0x18
 f1b:	e9 60 fe ff ff       	jmpq   d80 <.plt>

0000000000000f20 <getopt@plt>:
 f20:	ff 25 ba 31 20 00    	jmpq   *0x2031ba(%rip)        # 2040e0 <getopt@GLIBC_2.2.5>
 f26:	68 19 00 00 00       	pushq  $0x19
 f2b:	e9 50 fe ff ff       	jmpq   d80 <.plt>

0000000000000f30 <strtoul@plt>:
 f30:	ff 25 b2 31 20 00    	jmpq   *0x2031b2(%rip)        # 2040e8 <strtoul@GLIBC_2.2.5>
 f36:	68 1a 00 00 00       	pushq  $0x1a
 f3b:	e9 40 fe ff ff       	jmpq   d80 <.plt>

0000000000000f40 <gethostname@plt>:
 f40:	ff 25 aa 31 20 00    	jmpq   *0x2031aa(%rip)        # 2040f0 <gethostname@GLIBC_2.2.5>
 f46:	68 1b 00 00 00       	pushq  $0x1b
 f4b:	e9 30 fe ff ff       	jmpq   d80 <.plt>

0000000000000f50 <sprintf@plt>:
 f50:	ff 25 a2 31 20 00    	jmpq   *0x2031a2(%rip)        # 2040f8 <sprintf@GLIBC_2.2.5>
 f56:	68 1c 00 00 00       	pushq  $0x1c
 f5b:	e9 20 fe ff ff       	jmpq   d80 <.plt>

0000000000000f60 <exit@plt>:
 f60:	ff 25 9a 31 20 00    	jmpq   *0x20319a(%rip)        # 204100 <exit@GLIBC_2.2.5>
 f66:	68 1d 00 00 00       	pushq  $0x1d
 f6b:	e9 10 fe ff ff       	jmpq   d80 <.plt>

0000000000000f70 <connect@plt>:
 f70:	ff 25 92 31 20 00    	jmpq   *0x203192(%rip)        # 204108 <connect@GLIBC_2.2.5>
 f76:	68 1e 00 00 00       	pushq  $0x1e
 f7b:	e9 00 fe ff ff       	jmpq   d80 <.plt>

0000000000000f80 <socket@plt>:
 f80:	ff 25 8a 31 20 00    	jmpq   *0x20318a(%rip)        # 204110 <socket@GLIBC_2.2.5>
 f86:	68 1f 00 00 00       	pushq  $0x1f
 f8b:	e9 f0 fd ff ff       	jmpq   d80 <.plt>

Disassembly of section .plt.got:

0000000000000f90 <__cxa_finalize@plt>:
 f90:	ff 25 62 30 20 00    	jmpq   *0x203062(%rip)        # 203ff8 <__cxa_finalize@GLIBC_2.2.5>
 f96:	66 90                	xchg   %ax,%ax

Disassembly of section .text:

0000000000000fa0 <_start>:
     fa0:	31 ed                	xor    %ebp,%ebp
     fa2:	49 89 d1             	mov    %rdx,%r9
     fa5:	5e                   	pop    %rsi
     fa6:	48 89 e2             	mov    %rsp,%rdx
     fa9:	48 83 e4 f0          	and    $0xfffffffffffffff0,%rsp
     fad:	50                   	push   %rax
     fae:	54                   	push   %rsp
     faf:	4c 8d 05 9a 1e 00 00 	lea    0x1e9a(%rip),%r8        # 2e50 <__libc_csu_fini>
     fb6:	48 8d 0d 23 1e 00 00 	lea    0x1e23(%rip),%rcx        # 2de0 <__libc_csu_init>
     fbd:	48 8d 3d c3 02 00 00 	lea    0x2c3(%rip),%rdi        # 1287 <main>
     fc4:	ff 15 0e 30 20 00    	callq  *0x20300e(%rip)        # 203fd8 <__libc_start_main@GLIBC_2.2.5>
     fca:	f4                   	hlt    
     fcb:	0f 1f 44 00 00       	nopl   0x0(%rax,%rax,1)

0000000000000fd0 <deregister_tm_clones>:
     fd0:	48 8d 3d 81 31 20 00 	lea    0x203181(%rip),%rdi        # 204158 <__TMC_END__>
     fd7:	48 8d 05 81 31 20 00 	lea    0x203181(%rip),%rax        # 20415f <__TMC_END__+0x7>
     fde:	55                   	push   %rbp
     fdf:	48 29 f8             	sub    %rdi,%rax
     fe2:	48 89 e5             	mov    %rsp,%rbp
     fe5:	48 83 f8 0e          	cmp    $0xe,%rax
     fe9:	76 15                	jbe    1000 <deregister_tm_clones+0x30>
     feb:	48 8b 05 de 2f 20 00 	mov    0x202fde(%rip),%rax        # 203fd0 <_ITM_deregisterTMCloneTable>
     ff2:	48 85 c0             	test   %rax,%rax
     ff5:	74 09                	je     1000 <deregister_tm_clones+0x30>
     ff7:	5d                   	pop    %rbp
     ff8:	ff e0                	jmpq   *%rax
     ffa:	66 0f 1f 44 00 00    	nopw   0x0(%rax,%rax,1)
    1000:	5d                   	pop    %rbp
    1001:	c3                   	retq   
    1002:	0f 1f 40 00          	nopl   0x0(%rax)
    1006:	66 2e 0f 1f 84 00 00 	nopw   %cs:0x0(%rax,%rax,1)
    100d:	00 00 00 

0000000000001010 <register_tm_clones>:
    1010:	48 8d 3d 41 31 20 00 	lea    0x203141(%rip),%rdi        # 204158 <__TMC_END__>
    1017:	48 8d 35 3a 31 20 00 	lea    0x20313a(%rip),%rsi        # 204158 <__TMC_END__>
    101e:	55                   	push   %rbp
    101f:	48 29 fe             	sub    %rdi,%rsi
    1022:	48 89 e5             	mov    %rsp,%rbp
    1025:	48 c1 fe 03          	sar    $0x3,%rsi
    1029:	48 89 f0             	mov    %rsi,%rax
    102c:	48 c1 e8 3f          	shr    $0x3f,%rax
    1030:	48 01 c6             	add    %rax,%rsi
    1033:	48 d1 fe             	sar    %rsi
    1036:	74 18                	je     1050 <register_tm_clones+0x40>
    1038:	48 8b 05 b1 2f 20 00 	mov    0x202fb1(%rip),%rax        # 203ff0 <_ITM_registerTMCloneTable>
    103f:	48 85 c0             	test   %rax,%rax
    1042:	74 0c                	je     1050 <register_tm_clones+0x40>
    1044:	5d                   	pop    %rbp
    1045:	ff e0                	jmpq   *%rax
    1047:	66 0f 1f 84 00 00 00 	nopw   0x0(%rax,%rax,1)
    104e:	00 00 
    1050:	5d                   	pop    %rbp
    1051:	c3                   	retq   
    1052:	0f 1f 40 00          	nopl   0x0(%rax)
    1056:	66 2e 0f 1f 84 00 00 	nopw   %cs:0x0(%rax,%rax,1)
    105d:	00 00 00 

0000000000001060 <__do_global_dtors_aux>:
    1060:	80 3d 21 31 20 00 00 	cmpb   $0x0,0x203121(%rip)        # 204188 <completed.6972>
    1067:	75 27                	jne    1090 <__do_global_dtors_aux+0x30>
    1069:	48 83 3d 87 2f 20 00 	cmpq   $0x0,0x202f87(%rip)        # 203ff8 <__cxa_finalize@GLIBC_2.2.5>
    1070:	00 
    1071:	55                   	push   %rbp
    1072:	48 89 e5             	mov    %rsp,%rbp
    1075:	74 0c                	je     1083 <__do_global_dtors_aux+0x23>
    1077:	48 8b 3d a2 30 20 00 	mov    0x2030a2(%rip),%rdi        # 204120 <__dso_handle>
    107e:	e8 0d ff ff ff       	callq  f90 <__cxa_finalize@plt>
    1083:	e8 48 ff ff ff       	callq  fd0 <deregister_tm_clones>
    1088:	5d                   	pop    %rbp
    1089:	c6 05 f8 30 20 00 01 	movb   $0x1,0x2030f8(%rip)        # 204188 <completed.6972>
    1090:	f3 c3                	repz retq 
    1092:	0f 1f 40 00          	nopl   0x0(%rax)
    1096:	66 2e 0f 1f 84 00 00 	nopw   %cs:0x0(%rax,%rax,1)
    109d:	00 00 00 

00000000000010a0 <frame_dummy>:
    10a0:	48 8d 3d 41 2d 20 00 	lea    0x202d41(%rip),%rdi        # 203de8 <__JCR_END__>
    10a7:	48 83 3f 00          	cmpq   $0x0,(%rdi)
    10ab:	75 0b                	jne    10b8 <frame_dummy+0x18>
    10ad:	e9 5e ff ff ff       	jmpq   1010 <register_tm_clones>
    10b2:	66 0f 1f 44 00 00    	nopw   0x0(%rax,%rax,1)
    10b8:	48 8b 05 29 2f 20 00 	mov    0x202f29(%rip),%rax        # 203fe8 <_Jv_RegisterClasses>
    10bf:	48 85 c0             	test   %rax,%rax
    10c2:	74 e9                	je     10ad <frame_dummy+0xd>
    10c4:	55                   	push   %rbp
    10c5:	48 89 e5             	mov    %rsp,%rbp
    10c8:	ff d0                	callq  *%rax
    10ca:	5d                   	pop    %rbp
    10cb:	e9 40 ff ff ff       	jmpq   1010 <register_tm_clones>

00000000000010d0 <usage>:
    10d0:	48 83 ec 08          	sub    $0x8,%rsp
    10d4:	48 89 fe             	mov    %rdi,%rsi
    10d7:	83 3d 0a 34 20 00 00 	cmpl   $0x0,0x20340a(%rip)        # 2044e8 <is_checker>
    10de:	74 4b                	je     112b <usage+0x5b>
    10e0:	48 8d 3d 81 1d 00 00 	lea    0x1d81(%rip),%rdi        # 2e68 <_IO_stdin_used+0x8>
    10e7:	b8 00 00 00 00       	mov    $0x0,%eax
    10ec:	e8 1f fd ff ff       	callq  e10 <printf@plt>
    10f1:	48 8d 3d a8 1d 00 00 	lea    0x1da8(%rip),%rdi        # 2ea0 <_IO_stdin_used+0x40>
    10f8:	e8 e3 fc ff ff       	callq  de0 <puts@plt>
    10fd:	48 8d 3d d4 1e 00 00 	lea    0x1ed4(%rip),%rdi        # 2fd8 <_IO_stdin_used+0x178>
    1104:	e8 d7 fc ff ff       	callq  de0 <puts@plt>
    1109:	48 8d 3d b8 1d 00 00 	lea    0x1db8(%rip),%rdi        # 2ec8 <_IO_stdin_used+0x68>
    1110:	e8 cb fc ff ff       	callq  de0 <puts@plt>
    1115:	48 8d 3d d6 1e 00 00 	lea    0x1ed6(%rip),%rdi        # 2ff2 <_IO_stdin_used+0x192>
    111c:	e8 bf fc ff ff       	callq  de0 <puts@plt>
    1121:	bf 00 00 00 00       	mov    $0x0,%edi
    1126:	e8 35 fe ff ff       	callq  f60 <exit@plt>
    112b:	48 8d 3d dc 1e 00 00 	lea    0x1edc(%rip),%rdi        # 300e <_IO_stdin_used+0x1ae>
    1132:	b8 00 00 00 00       	mov    $0x0,%eax
    1137:	e8 d4 fc ff ff       	callq  e10 <printf@plt>
    113c:	48 8d 3d ad 1d 00 00 	lea    0x1dad(%rip),%rdi        # 2ef0 <_IO_stdin_used+0x90>
    1143:	e8 98 fc ff ff       	callq  de0 <puts@plt>
    1148:	48 8d 3d c9 1d 00 00 	lea    0x1dc9(%rip),%rdi        # 2f18 <_IO_stdin_used+0xb8>
    114f:	e8 8c fc ff ff       	callq  de0 <puts@plt>
    1154:	48 8d 3d d1 1e 00 00 	lea    0x1ed1(%rip),%rdi        # 302c <_IO_stdin_used+0x1cc>
    115b:	e8 80 fc ff ff       	callq  de0 <puts@plt>
    1160:	eb bf                	jmp    1121 <usage+0x51>

0000000000001162 <initialize_target>:
    1162:	55                   	push   %rbp
    1163:	53                   	push   %rbx
    1164:	48 81 ec 08 21 00 00 	sub    $0x2108,%rsp
    116b:	89 f5                	mov    %esi,%ebp
    116d:	89 3d 65 33 20 00    	mov    %edi,0x203365(%rip)        # 2044d8 <check_level>
    1173:	8b 3d af 2f 20 00    	mov    0x202faf(%rip),%edi        # 204128 <target_id>
    1179:	e8 36 1c 00 00       	callq  2db4 <gencookie>
    117e:	89 05 60 33 20 00    	mov    %eax,0x203360(%rip)        # 2044e4 <cookie>
    1184:	89 c7                	mov    %eax,%edi
    1186:	e8 29 1c 00 00       	callq  2db4 <gencookie>
    118b:	89 05 4f 33 20 00    	mov    %eax,0x20334f(%rip)        # 2044e0 <authkey>
    1191:	8b 05 91 2f 20 00    	mov    0x202f91(%rip),%eax        # 204128 <target_id>
    1197:	8d 78 01             	lea    0x1(%rax),%edi
    119a:	e8 11 fc ff ff       	callq  db0 <srandom@plt>
    119f:	e8 1c fd ff ff       	callq  ec0 <random@plt>
    11a4:	89 c7                	mov    %eax,%edi
    11a6:	e8 c3 02 00 00       	callq  146e <scramble>
    11ab:	89 c3                	mov    %eax,%ebx
    11ad:	85 ed                	test   %ebp,%ebp
    11af:	75 3d                	jne    11ee <initialize_target+0x8c>
    11b1:	b8 00 00 00 00       	mov    $0x0,%eax
    11b6:	01 d8                	add    %ebx,%eax
    11b8:	0f b7 c0             	movzwl %ax,%eax
    11bb:	8d 04 c5 00 01 00 00 	lea    0x100(,%rax,8),%eax
    11c2:	89 c0                	mov    %eax,%eax
    11c4:	48 89 05 7d 2f 20 00 	mov    %rax,0x202f7d(%rip)        # 204148 <buf_offset>
    11cb:	c6 05 36 3f 20 00 63 	movb   $0x63,0x203f36(%rip)        # 205108 <target_prefix>
    11d2:	83 3d 77 2f 20 00 00 	cmpl   $0x0,0x202f77(%rip)        # 204150 <notify>
    11d9:	74 09                	je     11e4 <initialize_target+0x82>
    11db:	83 3d 06 33 20 00 00 	cmpl   $0x0,0x203306(%rip)        # 2044e8 <is_checker>
    11e2:	74 22                	je     1206 <initialize_target+0xa4>
    11e4:	48 81 c4 08 21 00 00 	add    $0x2108,%rsp
    11eb:	5b                   	pop    %rbx
    11ec:	5d                   	pop    %rbp
    11ed:	c3                   	retq   
    11ee:	bf 00 00 00 00       	mov    $0x0,%edi
    11f3:	e8 b8 fc ff ff       	callq  eb0 <time@plt>
    11f8:	89 c7                	mov    %eax,%edi
    11fa:	e8 b1 fb ff ff       	callq  db0 <srandom@plt>
    11ff:	e8 bc fc ff ff       	callq  ec0 <random@plt>
    1204:	eb b0                	jmp    11b6 <initialize_target+0x54>
    1206:	48 89 e7             	mov    %rsp,%rdi
    1209:	be 00 01 00 00       	mov    $0x100,%esi
    120e:	e8 2d fd ff ff       	callq  f40 <gethostname@plt>
    1213:	89 c3                	mov    %eax,%ebx
    1215:	85 c0                	test   %eax,%eax
    1217:	75 24                	jne    123d <initialize_target+0xdb>
    1219:	48 63 c3             	movslq %ebx,%rax
    121c:	48 8d 15 7d 2f 20 00 	lea    0x202f7d(%rip),%rdx        # 2041a0 <host_table>
    1223:	48 8b 3c c2          	mov    (%rdx,%rax,8),%rdi
    1227:	48 85 ff             	test   %rdi,%rdi
    122a:	74 27                	je     1253 <initialize_target+0xf1>
    122c:	48 89 e6             	mov    %rsp,%rsi
    122f:	e8 5c fb ff ff       	callq  d90 <strcasecmp@plt>
    1234:	85 c0                	test   %eax,%eax
    1236:	74 1b                	je     1253 <initialize_target+0xf1>
    1238:	83 c3 01             	add    $0x1,%ebx
    123b:	eb dc                	jmp    1219 <initialize_target+0xb7>
    123d:	48 8d 3d 04 1d 00 00 	lea    0x1d04(%rip),%rdi        # 2f48 <_IO_stdin_used+0xe8>
    1244:	e8 97 fb ff ff       	callq  de0 <puts@plt>
    1249:	bf 08 00 00 00       	mov    $0x8,%edi
    124e:	e8 0d fd ff ff       	callq  f60 <exit@plt>
    1253:	48 8d bc 24 00 01 00 	lea    0x100(%rsp),%rdi
    125a:	00 
    125b:	e8 d9 18 00 00       	callq  2b39 <init_driver>
    1260:	85 c0                	test   %eax,%eax
    1262:	79 80                	jns    11e4 <initialize_target+0x82>
    1264:	48 8d b4 24 00 01 00 	lea    0x100(%rsp),%rsi
    126b:	00 
    126c:	48 8d 3d 0d 1d 00 00 	lea    0x1d0d(%rip),%rdi        # 2f80 <_IO_stdin_used+0x120>
    1273:	b8 00 00 00 00       	mov    $0x0,%eax
    1278:	e8 93 fb ff ff       	callq  e10 <printf@plt>
    127d:	bf 08 00 00 00       	mov    $0x8,%edi
    1282:	e8 d9 fc ff ff       	callq  f60 <exit@plt>

0000000000001287 <main>:
    1287:	41 56                	push   %r14
    1289:	41 55                	push   %r13
    128b:	41 54                	push   %r12
    128d:	55                   	push   %rbp
    128e:	53                   	push   %rbx
    128f:	41 89 fc             	mov    %edi,%r12d
    1292:	48 89 f3             	mov    %rsi,%rbx
    1295:	48 8d 35 43 0c 00 00 	lea    0xc43(%rip),%rsi        # 1edf <seghandler>
    129c:	bf 0b 00 00 00       	mov    $0xb,%edi
    12a1:	e8 ba fb ff ff       	callq  e60 <signal@plt>
    12a6:	48 8d 35 de 0b 00 00 	lea    0xbde(%rip),%rsi        # 1e8b <bushandler>
    12ad:	bf 07 00 00 00       	mov    $0x7,%edi
    12b2:	e8 a9 fb ff ff       	callq  e60 <signal@plt>
    12b7:	48 8d 35 75 0c 00 00 	lea    0xc75(%rip),%rsi        # 1f33 <illegalhandler>
    12be:	bf 04 00 00 00       	mov    $0x4,%edi
    12c3:	e8 98 fb ff ff       	callq  e60 <signal@plt>
    12c8:	83 3d 19 32 20 00 00 	cmpl   $0x0,0x203219(%rip)        # 2044e8 <is_checker>
    12cf:	75 58                	jne    1329 <main+0xa2>
    12d1:	48 8d 2d 6d 1d 00 00 	lea    0x1d6d(%rip),%rbp        # 3045 <_IO_stdin_used+0x1e5>
    12d8:	48 8b 05 81 2e 20 00 	mov    0x202e81(%rip),%rax        # 204160 <stdin@@GLIBC_2.2.5>
    12df:	48 89 05 ea 31 20 00 	mov    %rax,0x2031ea(%rip)        # 2044d0 <infile>
    12e6:	41 bd 00 00 00 00    	mov    $0x0,%r13d
    12ec:	41 be 00 00 00 00    	mov    $0x0,%r14d
    12f2:	48 89 ea             	mov    %rbp,%rdx
    12f5:	48 89 de             	mov    %rbx,%rsi
    12f8:	44 89 e7             	mov    %r12d,%edi
    12fb:	e8 20 fc ff ff       	callq  f20 <getopt@plt>
    1300:	3c ff                	cmp    $0xff,%al
    1302:	0f 84 f8 00 00 00    	je     1400 <main+0x179>
    1308:	0f be f0             	movsbl %al,%esi
    130b:	83 e8 61             	sub    $0x61,%eax
    130e:	3c 10                	cmp    $0x10,%al
    1310:	0f 87 d1 00 00 00    	ja     13e7 <main+0x160>
    1316:	0f b6 c0             	movzbl %al,%eax
    1319:	48 8d 15 70 1d 00 00 	lea    0x1d70(%rip),%rdx        # 3090 <_IO_stdin_used+0x230>
    1320:	48 63 04 82          	movslq (%rdx,%rax,4),%rax
    1324:	48 01 d0             	add    %rdx,%rax
    1327:	ff e0                	jmpq   *%rax
    1329:	48 8d 35 57 0c 00 00 	lea    0xc57(%rip),%rsi        # 1f87 <sigalrmhandler>
    1330:	bf 0e 00 00 00       	mov    $0xe,%edi
    1335:	e8 26 fb ff ff       	callq  e60 <signal@plt>
    133a:	bf 05 00 00 00       	mov    $0x5,%edi
    133f:	e8 ec fa ff ff       	callq  e30 <alarm@plt>
    1344:	48 8d 2d ff 1c 00 00 	lea    0x1cff(%rip),%rbp        # 304a <_IO_stdin_used+0x1ea>
    134b:	eb 8b                	jmp    12d8 <main+0x51>
    134d:	48 8b 3b             	mov    (%rbx),%rdi
    1350:	e8 7b fd ff ff       	callq  10d0 <usage>
    1355:	48 8d 35 49 1f 00 00 	lea    0x1f49(%rip),%rsi        # 32a5 <_IO_stdin_used+0x445>
    135c:	48 8b 3d 05 2e 20 00 	mov    0x202e05(%rip),%rdi        # 204168 <optarg@@GLIBC_2.2.5>
    1363:	e8 a8 fb ff ff       	callq  f10 <fopen@plt>
    1368:	48 89 05 61 31 20 00 	mov    %rax,0x203161(%rip)        # 2044d0 <infile>
    136f:	48 85 c0             	test   %rax,%rax
    1372:	0f 85 7a ff ff ff    	jne    12f2 <main+0x6b>
    1378:	48 8b 15 e9 2d 20 00 	mov    0x202de9(%rip),%rdx        # 204168 <optarg@@GLIBC_2.2.5>
    137f:	48 8d 35 cc 1c 00 00 	lea    0x1ccc(%rip),%rsi        # 3052 <_IO_stdin_used+0x1f2>
    1386:	48 8b 3d f3 2d 20 00 	mov    0x202df3(%rip),%rdi        # 204180 <stderr@@GLIBC_2.2.5>
    138d:	e8 ee fa ff ff       	callq  e80 <fprintf@plt>
    1392:	b8 01 00 00 00       	mov    $0x1,%eax
    1397:	e9 c9 00 00 00       	jmpq   1465 <main+0x1de>
    139c:	ba 10 00 00 00       	mov    $0x10,%edx
    13a1:	be 00 00 00 00       	mov    $0x0,%esi
    13a6:	48 8b 3d bb 2d 20 00 	mov    0x202dbb(%rip),%rdi        # 204168 <optarg@@GLIBC_2.2.5>
    13ad:	e8 7e fb ff ff       	callq  f30 <strtoul@plt>
    13b2:	41 89 c6             	mov    %eax,%r14d
    13b5:	e9 38 ff ff ff       	jmpq   12f2 <main+0x6b>

#if __HAVE_FLOAT64 && __GLIBC_USE (IEC_60559_TYPES_EXT)
extern int strfromf64 (char *__dest, size_t __size, const char * __format,
		       _Float64 __f)
     __THROW __nonnull ((3));
#endif
    13ba:	ba 0a 00 00 00       	mov    $0xa,%edx
    13bf:	be 00 00 00 00       	mov    $0x0,%esi
    13c4:	48 8b 3d 9d 2d 20 00 	mov    0x202d9d(%rip),%rdi        # 204168 <optarg@@GLIBC_2.2.5>
    13cb:	e8 c0 fa ff ff       	callq  e90 <strtol@plt>
    13d0:	41 89 c5             	mov    %eax,%r13d
    13d3:	e9 1a ff ff ff       	jmpq   12f2 <main+0x6b>
    13d8:	c7 05 6e 2d 20 00 00 	movl   $0x0,0x202d6e(%rip)        # 204150 <notify>
    13df:	00 00 00 
    13e2:	e9 0b ff ff ff       	jmpq   12f2 <main+0x6b>
    13e7:	48 8d 3d 81 1c 00 00 	lea    0x1c81(%rip),%rdi        # 306f <_IO_stdin_used+0x20f>
    13ee:	b8 00 00 00 00       	mov    $0x0,%eax
    13f3:	e8 18 fa ff ff       	callq  e10 <printf@plt>
    13f8:	48 8b 3b             	mov    (%rbx),%rdi
    13fb:	e8 d0 fc ff ff       	callq  10d0 <usage>
    1400:	be 00 00 00 00       	mov    $0x0,%esi
    1405:	44 89 ef             	mov    %r13d,%edi
    1408:	e8 55 fd ff ff       	callq  1162 <initialize_target>
    140d:	83 3d d4 30 20 00 00 	cmpl   $0x0,0x2030d4(%rip)        # 2044e8 <is_checker>
    1414:	74 27                	je     143d <main+0x1b6>
    1416:	44 3b 35 c3 30 20 00 	cmp    0x2030c3(%rip),%r14d        # 2044e0 <authkey>
    141d:	74 1e                	je     143d <main+0x1b6>
    141f:	44 89 f6             	mov    %r14d,%esi
    1422:	48 8d 3d 7f 1b 00 00 	lea    0x1b7f(%rip),%rdi        # 2fa8 <_IO_stdin_used+0x148>
    1429:	b8 00 00 00 00       	mov    $0x0,%eax
    142e:	e8 dd f9 ff ff       	callq  e10 <printf@plt>
    1433:	b8 00 00 00 00       	mov    $0x0,%eax
    1438:	e8 1e 07 00 00       	callq  1b5b <check_fail>
    143d:	8b 35 a1 30 20 00    	mov    0x2030a1(%rip),%esi        # 2044e4 <cookie>
    1443:	48 8d 3d 38 1c 00 00 	lea    0x1c38(%rip),%rdi        # 3082 <_IO_stdin_used+0x222>
    144a:	b8 00 00 00 00       	mov    $0x0,%eax
    144f:	e8 bc f9 ff ff       	callq  e10 <printf@plt>
    1454:	48 8b 3d ed 2c 20 00 	mov    0x202ced(%rip),%rdi        # 204148 <buf_offset>
    145b:	e8 02 0c 00 00       	callq  2062 <stable_launch>
    1460:	b8 00 00 00 00       	mov    $0x0,%eax
    1465:	5b                   	pop    %rbx
    1466:	5d                   	pop    %rbp
    1467:	41 5c                	pop    %r12
    1469:	41 5d                	pop    %r13
    146b:	41 5e                	pop    %r14
    146d:	c3                   	retq   

000000000000146e <scramble>:
    146e:	b8 00 00 00 00       	mov    $0x0,%eax
    1473:	eb 11                	jmp    1486 <scramble+0x18>
    1475:	69 d0 bb 40 00 00    	imul   $0x40bb,%eax,%edx
    147b:	01 fa                	add    %edi,%edx
    147d:	89 c1                	mov    %eax,%ecx
    147f:	89 54 8c d0          	mov    %edx,-0x30(%rsp,%rcx,4)
    1483:	83 c0 01             	add    $0x1,%eax
    1486:	83 f8 09             	cmp    $0x9,%eax
    1489:	76 ea                	jbe    1475 <scramble+0x7>
    148b:	8b 44 24 d4          	mov    -0x2c(%rsp),%eax
    148f:	69 c0 fe ea 00 00    	imul   $0xeafe,%eax,%eax
    1495:	89 44 24 d4          	mov    %eax,-0x2c(%rsp)
    1499:	8b 44 24 e0          	mov    -0x20(%rsp),%eax
    149d:	69 c0 1c 10 00 00    	imul   $0x101c,%eax,%eax
    14a3:	89 44 24 e0          	mov    %eax,-0x20(%rsp)
    14a7:	8b 44 24 d8          	mov    -0x28(%rsp),%eax
    14ab:	69 c0 2a 36 00 00    	imul   $0x362a,%eax,%eax
    14b1:	89 44 24 d8          	mov    %eax,-0x28(%rsp)
    14b5:	8b 44 24 f4          	mov    -0xc(%rsp),%eax
    14b9:	69 c0 32 a3 00 00    	imul   $0xa332,%eax,%eax
    14bf:	89 44 24 f4          	mov    %eax,-0xc(%rsp)
    14c3:	8b 44 24 f4          	mov    -0xc(%rsp),%eax
    14c7:	69 c0 d2 35 00 00    	imul   $0x35d2,%eax,%eax
    14cd:	89 44 24 f4          	mov    %eax,-0xc(%rsp)
    14d1:	8b 44 24 e0          	mov    -0x20(%rsp),%eax
    14d5:	69 c0 02 4e 00 00    	imul   $0x4e02,%eax,%eax
    14db:	89 44 24 e0          	mov    %eax,-0x20(%rsp)
    14df:	8b 44 24 e4          	mov    -0x1c(%rsp),%eax
    14e3:	69 c0 f6 4e 00 00    	imul   $0x4ef6,%eax,%eax
    14e9:	89 44 24 e4          	mov    %eax,-0x1c(%rsp)
    14ed:	8b 44 24 ec          	mov    -0x14(%rsp),%eax
    14f1:	69 c0 d9 e0 00 00    	imul   $0xe0d9,%eax,%eax
    14f7:	89 44 24 ec          	mov    %eax,-0x14(%rsp)
    14fb:	8b 44 24 ec          	mov    -0x14(%rsp),%eax
    14ff:	69 c0 99 ff 00 00    	imul   $0xff99,%eax,%eax
    1505:	89 44 24 ec          	mov    %eax,-0x14(%rsp)
    1509:	8b 44 24 ec          	mov    -0x14(%rsp),%eax
    150d:	69 c0 e7 92 00 00    	imul   $0x92e7,%eax,%eax
    1513:	89 44 24 ec          	mov    %eax,-0x14(%rsp)
    1517:	8b 44 24 f4          	mov    -0xc(%rsp),%eax
    151b:	69 c0 85 40 00 00    	imul   $0x4085,%eax,%eax
    1521:	89 44 24 f4          	mov    %eax,-0xc(%rsp)
    1525:	8b 44 24 f4          	mov    -0xc(%rsp),%eax
    1529:	69 c0 99 ad 00 00    	imul   $0xad99,%eax,%eax
    152f:	89 44 24 f4          	mov    %eax,-0xc(%rsp)
    1533:	8b 44 24 f4          	mov    -0xc(%rsp),%eax
    1537:	69 c0 87 4a 00 00    	imul   $0x4a87,%eax,%eax
    153d:	89 44 24 f4          	mov    %eax,-0xc(%rsp)
    1541:	8b 44 24 e0          	mov    -0x20(%rsp),%eax
    1545:	69 c0 4d 7e 00 00    	imul   $0x7e4d,%eax,%eax
    154b:	89 44 24 e0          	mov    %eax,-0x20(%rsp)
    154f:	8b 44 24 e8          	mov    -0x18(%rsp),%eax
    1553:	69 c0 28 fc 00 00    	imul   $0xfc28,%eax,%eax
    1559:	89 44 24 e8          	mov    %eax,-0x18(%rsp)
    155d:	8b 44 24 f4          	mov    -0xc(%rsp),%eax
    1561:	69 c0 f3 89 00 00    	imul   $0x89f3,%eax,%eax
    1567:	89 44 24 f4          	mov    %eax,-0xc(%rsp)
    156b:	8b 44 24 d4          	mov    -0x2c(%rsp),%eax
    156f:	69 c0 0b 44 00 00    	imul   $0x440b,%eax,%eax
    1575:	89 44 24 d4          	mov    %eax,-0x2c(%rsp)
    1579:	8b 44 24 e4          	mov    -0x1c(%rsp),%eax
    157d:	69 c0 11 b3 00 00    	imul   $0xb311,%eax,%eax
    1583:	89 44 24 e4          	mov    %eax,-0x1c(%rsp)
    1587:	8b 44 24 ec          	mov    -0x14(%rsp),%eax
    158b:	69 c0 d7 88 00 00    	imul   $0x88d7,%eax,%eax
    1591:	89 44 24 ec          	mov    %eax,-0x14(%rsp)
    1595:	8b 44 24 e0          	mov    -0x20(%rsp),%eax
    1599:	69 c0 e0 eb 00 00    	imul   $0xebe0,%eax,%eax
    159f:	89 44 24 e0          	mov    %eax,-0x20(%rsp)
    15a3:	8b 44 24 e8          	mov    -0x18(%rsp),%eax
    15a7:	69 c0 6a c0 00 00    	imul   $0xc06a,%eax,%eax
    15ad:	89 44 24 e8          	mov    %eax,-0x18(%rsp)
    15b1:	8b 44 24 e8          	mov    -0x18(%rsp),%eax
    15b5:	69 c0 c4 41 00 00    	imul   $0x41c4,%eax,%eax
    15bb:	89 44 24 e8          	mov    %eax,-0x18(%rsp)
    15bf:	8b 44 24 dc          	mov    -0x24(%rsp),%eax
    15c3:	69 c0 bc cb 00 00    	imul   $0xcbbc,%eax,%eax
    15c9:	89 44 24 dc          	mov    %eax,-0x24(%rsp)
    15cd:	8b 44 24 dc          	mov    -0x24(%rsp),%eax
    15d1:	69 c0 17 fb 00 00    	imul   $0xfb17,%eax,%eax
    15d7:	89 44 24 dc          	mov    %eax,-0x24(%rsp)
    15db:	8b 44 24 e4          	mov    -0x1c(%rsp),%eax
    15df:	69 c0 38 59 00 00    	imul   $0x5938,%eax,%eax
    15e5:	89 44 24 e4          	mov    %eax,-0x1c(%rsp)
    15e9:	8b 44 24 ec          	mov    -0x14(%rsp),%eax
    15ed:	69 c0 e7 62 00 00    	imul   $0x62e7,%eax,%eax
    15f3:	89 44 24 ec          	mov    %eax,-0x14(%rsp)
    15f7:	8b 44 24 d8          	mov    -0x28(%rsp),%eax
    15fb:	69 c0 88 19 00 00    	imul   $0x1988,%eax,%eax
    1601:	89 44 24 d8          	mov    %eax,-0x28(%rsp)
    1605:	8b 44 24 f4          	mov    -0xc(%rsp),%eax
    1609:	69 c0 e8 8b 00 00    	imul   $0x8be8,%eax,%eax
    160f:	89 44 24 f4          	mov    %eax,-0xc(%rsp)
    1613:	8b 44 24 d4          	mov    -0x2c(%rsp),%eax
    1617:	69 c0 a2 06 00 00    	imul   $0x6a2,%eax,%eax
    161d:	89 44 24 d4          	mov    %eax,-0x2c(%rsp)
    1621:	8b 44 24 d0          	mov    -0x30(%rsp),%eax
    1625:	69 c0 47 ad 00 00    	imul   $0xad47,%eax,%eax
    162b:	89 44 24 d0          	mov    %eax,-0x30(%rsp)
    162f:	8b 44 24 d8          	mov    -0x28(%rsp),%eax
    1633:	69 c0 28 18 00 00    	imul   $0x1828,%eax,%eax
    1639:	89 44 24 d8          	mov    %eax,-0x28(%rsp)
    163d:	8b 44 24 d4          	mov    -0x2c(%rsp),%eax
    1641:	69 c0 f1 e9 00 00    	imul   $0xe9f1,%eax,%eax
    1647:	89 44 24 d4          	mov    %eax,-0x2c(%rsp)
    164b:	8b 44 24 e0          	mov    -0x20(%rsp),%eax
    164f:	69 c0 4a d1 00 00    	imul   $0xd14a,%eax,%eax
    1655:	89 44 24 e0          	mov    %eax,-0x20(%rsp)
    1659:	8b 44 24 f4          	mov    -0xc(%rsp),%eax
    165d:	69 c0 69 d6 00 00    	imul   $0xd669,%eax,%eax
    1663:	89 44 24 f4          	mov    %eax,-0xc(%rsp)
    1667:	8b 44 24 dc          	mov    -0x24(%rsp),%eax
    166b:	69 c0 46 f3 00 00    	imul   $0xf346,%eax,%eax
    1671:	89 44 24 dc          	mov    %eax,-0x24(%rsp)
    1675:	8b 44 24 d8          	mov    -0x28(%rsp),%eax
    1679:	69 c0 cb 18 00 00    	imul   $0x18cb,%eax,%eax
    167f:	89 44 24 d8          	mov    %eax,-0x28(%rsp)
    1683:	8b 44 24 e4          	mov    -0x1c(%rsp),%eax
    1687:	69 c0 2c fc 00 00    	imul   $0xfc2c,%eax,%eax
    168d:	89 44 24 e4          	mov    %eax,-0x1c(%rsp)
    1691:	8b 44 24 e8          	mov    -0x18(%rsp),%eax
    1695:	69 c0 11 c3 00 00    	imul   $0xc311,%eax,%eax
    169b:	89 44 24 e8          	mov    %eax,-0x18(%rsp)
    169f:	8b 44 24 e0          	mov    -0x20(%rsp),%eax
    16a3:	69 c0 2c 7d 00 00    	imul   $0x7d2c,%eax,%eax
    16a9:	89 44 24 e0          	mov    %eax,-0x20(%rsp)
    16ad:	8b 44 24 d4          	mov    -0x2c(%rsp),%eax
    16b1:	69 c0 3d 93 00 00    	imul   $0x933d,%eax,%eax
    16b7:	89 44 24 d4          	mov    %eax,-0x2c(%rsp)
    16bb:	8b 44 24 d8          	mov    -0x28(%rsp),%eax
    16bf:	69 c0 27 4c 00 00    	imul   $0x4c27,%eax,%eax
    16c5:	89 44 24 d8          	mov    %eax,-0x28(%rsp)
    16c9:	8b 44 24 ec          	mov    -0x14(%rsp),%eax
    16cd:	69 c0 22 70 00 00    	imul   $0x7022,%eax,%eax
    16d3:	89 44 24 ec          	mov    %eax,-0x14(%rsp)
    16d7:	8b 44 24 d4          	mov    -0x2c(%rsp),%eax
    16db:	69 c0 a5 06 00 00    	imul   $0x6a5,%eax,%eax
    16e1:	89 44 24 d4          	mov    %eax,-0x2c(%rsp)
    16e5:	8b 44 24 ec          	mov    -0x14(%rsp),%eax
    16e9:	69 c0 be c9 00 00    	imul   $0xc9be,%eax,%eax
    16ef:	89 44 24 ec          	mov    %eax,-0x14(%rsp)
    16f3:	8b 44 24 dc          	mov    -0x24(%rsp),%eax
    16f7:	69 c0 40 06 00 00    	imul   $0x640,%eax,%eax
    16fd:	89 44 24 dc          	mov    %eax,-0x24(%rsp)
    1701:	8b 44 24 e0          	mov    -0x20(%rsp),%eax
    1705:	69 c0 11 10 00 00    	imul   $0x1011,%eax,%eax
    170b:	89 44 24 e0          	mov    %eax,-0x20(%rsp)
    170f:	8b 44 24 f4          	mov    -0xc(%rsp),%eax
    1713:	69 c0 40 ae 00 00    	imul   $0xae40,%eax,%eax
    1719:	89 44 24 f4          	mov    %eax,-0xc(%rsp)
    171d:	8b 44 24 d8          	mov    -0x28(%rsp),%eax
    1721:	69 c0 9c 7a 00 00    	imul   $0x7a9c,%eax,%eax
    1727:	89 44 24 d8          	mov    %eax,-0x28(%rsp)
    172b:	8b 44 24 e4          	mov    -0x1c(%rsp),%eax
    172f:	69 c0 05 97 00 00    	imul   $0x9705,%eax,%eax
    1735:	89 44 24 e4          	mov    %eax,-0x1c(%rsp)
    1739:	8b 44 24 f4          	mov    -0xc(%rsp),%eax
    173d:	69 c0 ab d9 00 00    	imul   $0xd9ab,%eax,%eax
    1743:	89 44 24 f4          	mov    %eax,-0xc(%rsp)
    1747:	8b 44 24 ec          	mov    -0x14(%rsp),%eax
    174b:	69 c0 4e 13 00 00    	imul   $0x134e,%eax,%eax
    1751:	89 44 24 ec          	mov    %eax,-0x14(%rsp)
    1755:	8b 44 24 d8          	mov    -0x28(%rsp),%eax
    1759:	69 c0 fc 3d 00 00    	imul   $0x3dfc,%eax,%eax
    175f:	89 44 24 d8          	mov    %eax,-0x28(%rsp)
    1763:	8b 44 24 e4          	mov    -0x1c(%rsp),%eax
    1767:	69 c0 06 4d 00 00    	imul   $0x4d06,%eax,%eax
    176d:	89 44 24 e4          	mov    %eax,-0x1c(%rsp)
    1771:	8b 44 24 e4          	mov    -0x1c(%rsp),%eax
    1775:	69 c0 62 d7 00 00    	imul   $0xd762,%eax,%eax
    177b:	89 44 24 e4          	mov    %eax,-0x1c(%rsp)
    177f:	8b 44 24 f0          	mov    -0x10(%rsp),%eax
    1783:	69 c0 35 bf 00 00    	imul   $0xbf35,%eax,%eax
    1789:	89 44 24 f0          	mov    %eax,-0x10(%rsp)
    178d:	8b 44 24 dc          	mov    -0x24(%rsp),%eax
    1791:	69 c0 98 a0 00 00    	imul   $0xa098,%eax,%eax
    1797:	89 44 24 dc          	mov    %eax,-0x24(%rsp)
    179b:	8b 44 24 d0          	mov    -0x30(%rsp),%eax
    179f:	69 c0 c4 60 00 00    	imul   $0x60c4,%eax,%eax
    17a5:	89 44 24 d0          	mov    %eax,-0x30(%rsp)
    17a9:	8b 44 24 e4          	mov    -0x1c(%rsp),%eax
    17ad:	69 c0 0c 71 00 00    	imul   $0x710c,%eax,%eax
    17b3:	89 44 24 e4          	mov    %eax,-0x1c(%rsp)
    17b7:	8b 44 24 f4          	mov    -0xc(%rsp),%eax
    17bb:	69 c0 c5 0c 00 00    	imul   $0xcc5,%eax,%eax
    17c1:	89 44 24 f4          	mov    %eax,-0xc(%rsp)
    17c5:	8b 44 24 e8          	mov    -0x18(%rsp),%eax
    17c9:	69 c0 b0 74 00 00    	imul   $0x74b0,%eax,%eax
    17cf:	89 44 24 e8          	mov    %eax,-0x18(%rsp)
    17d3:	8b 44 24 e0          	mov    -0x20(%rsp),%eax
    17d7:	69 c0 d0 b1 00 00    	imul   $0xb1d0,%eax,%eax
    17dd:	89 44 24 e0          	mov    %eax,-0x20(%rsp)
    17e1:	8b 44 24 d0          	mov    -0x30(%rsp),%eax
    17e5:	69 c0 6e 31 00 00    	imul   $0x316e,%eax,%eax
    17eb:	89 44 24 d0          	mov    %eax,-0x30(%rsp)
    17ef:	8b 44 24 d0          	mov    -0x30(%rsp),%eax
    17f3:	69 c0 c5 7e 00 00    	imul   $0x7ec5,%eax,%eax
    17f9:	89 44 24 d0          	mov    %eax,-0x30(%rsp)
    17fd:	8b 44 24 d0          	mov    -0x30(%rsp),%eax
    1801:	69 c0 9a df 00 00    	imul   $0xdf9a,%eax,%eax
    1807:	89 44 24 d0          	mov    %eax,-0x30(%rsp)
    180b:	8b 44 24 e8          	mov    -0x18(%rsp),%eax
    180f:	69 c0 0f fd 00 00    	imul   $0xfd0f,%eax,%eax
    1815:	89 44 24 e8          	mov    %eax,-0x18(%rsp)
    1819:	8b 44 24 e8          	mov    -0x18(%rsp),%eax
    181d:	69 c0 16 a0 00 00    	imul   $0xa016,%eax,%eax
    1823:	89 44 24 e8          	mov    %eax,-0x18(%rsp)
    1827:	8b 44 24 e0          	mov    -0x20(%rsp),%eax
    182b:	69 c0 bd ab 00 00    	imul   $0xabbd,%eax,%eax
    1831:	89 44 24 e0          	mov    %eax,-0x20(%rsp)
    1835:	8b 44 24 f4          	mov    -0xc(%rsp),%eax
    1839:	69 c0 d8 1f 00 00    	imul   $0x1fd8,%eax,%eax
    183f:	89 44 24 f4          	mov    %eax,-0xc(%rsp)
    1843:	8b 44 24 f4          	mov    -0xc(%rsp),%eax
    1847:	69 c0 1f df 00 00    	imul   $0xdf1f,%eax,%eax
    184d:	89 44 24 f4          	mov    %eax,-0xc(%rsp)
    1851:	8b 44 24 d8          	mov    -0x28(%rsp),%eax
    1855:	69 c0 f6 c2 00 00    	imul   $0xc2f6,%eax,%eax
    185b:	89 44 24 d8          	mov    %eax,-0x28(%rsp)
    185f:	8b 44 24 e0          	mov    -0x20(%rsp),%eax
    1863:	69 c0 db 61 00 00    	imul   $0x61db,%eax,%eax
    1869:	89 44 24 e0          	mov    %eax,-0x20(%rsp)
    186d:	8b 44 24 f4          	mov    -0xc(%rsp),%eax
    1871:	69 c0 b1 a9 00 00    	imul   $0xa9b1,%eax,%eax
    1877:	89 44 24 f4          	mov    %eax,-0xc(%rsp)
    187b:	8b 44 24 f0          	mov    -0x10(%rsp),%eax
    187f:	69 c0 49 74 00 00    	imul   $0x7449,%eax,%eax
    1885:	89 44 24 f0          	mov    %eax,-0x10(%rsp)
    1889:	8b 44 24 e8          	mov    -0x18(%rsp),%eax
    188d:	69 c0 09 2a 00 00    	imul   $0x2a09,%eax,%eax
    1893:	89 44 24 e8          	mov    %eax,-0x18(%rsp)
    1897:	8b 44 24 d4          	mov    -0x2c(%rsp),%eax
    189b:	69 c0 89 55 00 00    	imul   $0x5589,%eax,%eax
    18a1:	89 44 24 d4          	mov    %eax,-0x2c(%rsp)
    18a5:	8b 44 24 dc          	mov    -0x24(%rsp),%eax
    18a9:	69 c0 14 94 00 00    	imul   $0x9414,%eax,%eax
    18af:	89 44 24 dc          	mov    %eax,-0x24(%rsp)
    18b3:	8b 44 24 ec          	mov    -0x14(%rsp),%eax
    18b7:	69 c0 7b 23 00 00    	imul   $0x237b,%eax,%eax
    18bd:	89 44 24 ec          	mov    %eax,-0x14(%rsp)
    18c1:	8b 44 24 d8          	mov    -0x28(%rsp),%eax
    18c5:	69 c0 6a 67 00 00    	imul   $0x676a,%eax,%eax
    18cb:	89 44 24 d8          	mov    %eax,-0x28(%rsp)
    18cf:	8b 44 24 d0          	mov    -0x30(%rsp),%eax
    18d3:	69 c0 8d 71 00 00    	imul   $0x718d,%eax,%eax
    18d9:	89 44 24 d0          	mov    %eax,-0x30(%rsp)
    18dd:	8b 44 24 e4          	mov    -0x1c(%rsp),%eax
    18e1:	69 c0 0b b8 00 00    	imul   $0xb80b,%eax,%eax
    18e7:	89 44 24 e4          	mov    %eax,-0x1c(%rsp)
    18eb:	8b 44 24 e4          	mov    -0x1c(%rsp),%eax
    18ef:	6b c0 4a             	imul   $0x4a,%eax,%eax
    18f2:	89 44 24 e4          	mov    %eax,-0x1c(%rsp)
    18f6:	8b 44 24 dc          	mov    -0x24(%rsp),%eax
    18fa:	69 c0 fb 7e 00 00    	imul   $0x7efb,%eax,%eax
    1900:	89 44 24 dc          	mov    %eax,-0x24(%rsp)
    1904:	8b 44 24 dc          	mov    -0x24(%rsp),%eax
    1908:	69 c0 33 36 00 00    	imul   $0x3633,%eax,%eax
    190e:	89 44 24 dc          	mov    %eax,-0x24(%rsp)
    1912:	8b 44 24 d8          	mov    -0x28(%rsp),%eax
    1916:	69 c0 cb a4 00 00    	imul   $0xa4cb,%eax,%eax
    191c:	89 44 24 d8          	mov    %eax,-0x28(%rsp)
    1920:	ba 00 00 00 00       	mov    $0x0,%edx
    1925:	b8 00 00 00 00       	mov    $0x0,%eax
    192a:	eb 0b                	jmp    1937 <scramble+0x4c9>
    192c:	89 d1                	mov    %edx,%ecx
    192e:	8b 4c 8c d0          	mov    -0x30(%rsp,%rcx,4),%ecx
    1932:	01 c8                	add    %ecx,%eax
    1934:	83 c2 01             	add    $0x1,%edx
    1937:	83 fa 09             	cmp    $0x9,%edx
    193a:	76 f0                	jbe    192c <scramble+0x4be>
    193c:	f3 c3                	repz retq 

000000000000193e <getbuf>:
    193e:	48 83 ec 38          	sub    $0x38,%rsp
    1942:	48 89 e7             	mov    %rsp,%rdi
    1945:	e8 44 02 00 00       	callq  1b8e <Gets>
    194a:	b8 01 00 00 00       	mov    $0x1,%eax
    194f:	48 83 c4 38          	add    $0x38,%rsp
    1953:	c3                   	retq   

0000000000001954 <touch1>:
    1954:	48 83 ec 08          	sub    $0x8,%rsp
    1958:	c7 05 7a 2b 20 00 01 	movl   $0x1,0x202b7a(%rip)        # 2044dc <vlevel>
    195f:	00 00 00 
    1962:	48 8d 3d 8e 17 00 00 	lea    0x178e(%rip),%rdi        # 30f7 <_IO_stdin_used+0x297>
    1969:	e8 72 f4 ff ff       	callq  de0 <puts@plt>
    196e:	bf 01 00 00 00       	mov    $0x1,%edi
    1973:	e8 2d 04 00 00       	callq  1da5 <validate>
    1978:	bf 00 00 00 00       	mov    $0x0,%edi
    197d:	e8 de f5 ff ff       	callq  f60 <exit@plt>

0000000000001982 <touch2>:
    1982:	48 83 ec 08          	sub    $0x8,%rsp
    1986:	89 fe                	mov    %edi,%esi
    1988:	c7 05 4a 2b 20 00 02 	movl   $0x2,0x202b4a(%rip)        # 2044dc <vlevel>
    198f:	00 00 00 
    1992:	39 3d 4c 2b 20 00    	cmp    %edi,0x202b4c(%rip)        # 2044e4 <cookie>
    1998:	74 25                	je     19bf <touch2+0x3d>
    199a:	48 8d 3d a7 17 00 00 	lea    0x17a7(%rip),%rdi        # 3148 <_IO_stdin_used+0x2e8>
    19a1:	b8 00 00 00 00       	mov    $0x0,%eax
    19a6:	e8 65 f4 ff ff       	callq  e10 <printf@plt>
    19ab:	bf 02 00 00 00       	mov    $0x2,%edi
    19b0:	e8 ae 04 00 00       	callq  1e63 <fail>
    19b5:	bf 00 00 00 00       	mov    $0x0,%edi
    19ba:	e8 a1 f5 ff ff       	callq  f60 <exit@plt>
    19bf:	48 8d 3d 5a 17 00 00 	lea    0x175a(%rip),%rdi        # 3120 <_IO_stdin_used+0x2c0>
    19c6:	b8 00 00 00 00       	mov    $0x0,%eax
    19cb:	e8 40 f4 ff ff       	callq  e10 <printf@plt>
    19d0:	bf 02 00 00 00       	mov    $0x2,%edi
    19d5:	e8 cb 03 00 00       	callq  1da5 <validate>
    19da:	eb d9                	jmp    19b5 <touch2+0x33>

00000000000019dc <hexmatch>:
    19dc:	41 54                	push   %r12
    19de:	55                   	push   %rbp
    19df:	53                   	push   %rbx
    19e0:	48 83 ec 70          	sub    $0x70,%rsp
    19e4:	89 fd                	mov    %edi,%ebp
    19e6:	48 89 f3             	mov    %rsi,%rbx
    19e9:	e8 d2 f4 ff ff       	callq  ec0 <random@plt>
    19ee:	48 89 c1             	mov    %rax,%rcx
    19f1:	48 ba 0b d7 a3 70 3d 	movabs $0xa3d70a3d70a3d70b,%rdx
    19f8:	0a d7 a3 
    19fb:	48 f7 ea             	imul   %rdx
    19fe:	48 01 ca             	add    %rcx,%rdx
    1a01:	48 c1 fa 06          	sar    $0x6,%rdx
    1a05:	48 89 c8             	mov    %rcx,%rax
    1a08:	48 c1 f8 3f          	sar    $0x3f,%rax
    1a0c:	48 29 c2             	sub    %rax,%rdx
    1a0f:	48 8d 04 92          	lea    (%rdx,%rdx,4),%rax
    1a13:	48 8d 14 80          	lea    (%rax,%rax,4),%rdx
    1a17:	48 8d 04 95 00 00 00 	lea    0x0(,%rdx,4),%rax
    1a1e:	00 
    1a1f:	48 29 c1             	sub    %rax,%rcx
    1a22:	4c 8d 24 0c          	lea    (%rsp,%rcx,1),%r12
    1a26:	89 ea                	mov    %ebp,%edx
    1a28:	48 8d 35 e5 16 00 00 	lea    0x16e5(%rip),%rsi        # 3114 <_IO_stdin_used+0x2b4>
    1a2f:	4c 89 e7             	mov    %r12,%rdi
    1a32:	b8 00 00 00 00       	mov    $0x0,%eax
    1a37:	e8 14 f5 ff ff       	callq  f50 <sprintf@plt>
    1a3c:	ba 09 00 00 00       	mov    $0x9,%edx
    1a41:	4c 89 e6             	mov    %r12,%rsi
    1a44:	48 89 df             	mov    %rbx,%rdi
    1a47:	e8 74 f3 ff ff       	callq  dc0 <strncmp@plt>
    1a4c:	85 c0                	test   %eax,%eax
    1a4e:	0f 94 c0             	sete   %al
    1a51:	0f b6 c0             	movzbl %al,%eax
    1a54:	48 83 c4 70          	add    $0x70,%rsp
    1a58:	5b                   	pop    %rbx
    1a59:	5d                   	pop    %rbp
    1a5a:	41 5c                	pop    %r12
    1a5c:	c3                   	retq   

0000000000001a5d <touch3>:
    1a5d:	53                   	push   %rbx
    1a5e:	48 89 fb             	mov    %rdi,%rbx
    1a61:	c7 05 71 2a 20 00 03 	movl   $0x3,0x202a71(%rip)        # 2044dc <vlevel>
    1a68:	00 00 00 
    1a6b:	48 89 fe             	mov    %rdi,%rsi
    1a6e:	8b 3d 70 2a 20 00    	mov    0x202a70(%rip),%edi        # 2044e4 <cookie>
    1a74:	e8 63 ff ff ff       	callq  19dc <hexmatch>
    1a79:	85 c0                	test   %eax,%eax
    1a7b:	74 28                	je     1aa5 <touch3+0x48>
    1a7d:	48 89 de             	mov    %rbx,%rsi
    1a80:	48 8d 3d e9 16 00 00 	lea    0x16e9(%rip),%rdi        # 3170 <_IO_stdin_used+0x310>
    1a87:	b8 00 00 00 00       	mov    $0x0,%eax
    1a8c:	e8 7f f3 ff ff       	callq  e10 <printf@plt>
    1a91:	bf 03 00 00 00       	mov    $0x3,%edi
    1a96:	e8 0a 03 00 00       	callq  1da5 <validate>
    1a9b:	bf 00 00 00 00       	mov    $0x0,%edi
    1aa0:	e8 bb f4 ff ff       	callq  f60 <exit@plt>
    1aa5:	48 89 de             	mov    %rbx,%rsi
    1aa8:	48 8d 3d e9 16 00 00 	lea    0x16e9(%rip),%rdi        # 3198 <_IO_stdin_used+0x338>
    1aaf:	b8 00 00 00 00       	mov    $0x0,%eax
    1ab4:	e8 57 f3 ff ff       	callq  e10 <printf@plt>
    1ab9:	bf 03 00 00 00       	mov    $0x3,%edi
    1abe:	e8 a0 03 00 00       	callq  1e63 <fail>
    1ac3:	eb d6                	jmp    1a9b <touch3+0x3e>

0000000000001ac5 <test>:
    1ac5:	48 83 ec 08          	sub    $0x8,%rsp
    1ac9:	b8 00 00 00 00       	mov    $0x0,%eax
    1ace:	e8 6b fe ff ff       	callq  193e <getbuf>
    1ad3:	89 c6                	mov    %eax,%esi
    1ad5:	48 8d 3d e4 16 00 00 	lea    0x16e4(%rip),%rdi        # 31c0 <_IO_stdin_used+0x360>
    1adc:	b8 00 00 00 00       	mov    $0x0,%eax
    1ae1:	e8 2a f3 ff ff       	callq  e10 <printf@plt>
    1ae6:	48 83 c4 08          	add    $0x8,%rsp
    1aea:	c3                   	retq   

0000000000001aeb <save_char>:
    1aeb:	8b 05 13 36 20 00    	mov    0x203613(%rip),%eax        # 205104 <gets_cnt>
    1af1:	3d ff 03 00 00       	cmp    $0x3ff,%eax
    1af6:	7f 4a                	jg     1b42 <save_char+0x57>
    1af8:	8d 14 40             	lea    (%rax,%rax,2),%edx
    1afb:	89 f9                	mov    %edi,%ecx
    1afd:	c0 e9 04             	shr    $0x4,%cl
    1b00:	4c 8d 05 d9 19 00 00 	lea    0x19d9(%rip),%r8        # 34e0 <trans_char>
    1b07:	83 e1 0f             	and    $0xf,%ecx
    1b0a:	45 0f b6 0c 08       	movzbl (%r8,%rcx,1),%r9d
    1b0f:	48 8d 0d ea 29 20 00 	lea    0x2029ea(%rip),%rcx        # 204500 <gets_buf>
    1b16:	48 63 f2             	movslq %edx,%rsi
    1b19:	44 88 0c 31          	mov    %r9b,(%rcx,%rsi,1)
    1b1d:	8d 72 01             	lea    0x1(%rdx),%esi
    1b20:	83 e7 0f             	and    $0xf,%edi
    1b23:	41 0f b6 3c 38       	movzbl (%r8,%rdi,1),%edi
    1b28:	48 63 f6             	movslq %esi,%rsi
    1b2b:	40 88 3c 31          	mov    %dil,(%rcx,%rsi,1)
    1b2f:	83 c2 02             	add    $0x2,%edx
    1b32:	48 63 d2             	movslq %edx,%rdx
    1b35:	c6 04 11 20          	movb   $0x20,(%rcx,%rdx,1)
    1b39:	83 c0 01             	add    $0x1,%eax
    1b3c:	89 05 c2 35 20 00    	mov    %eax,0x2035c2(%rip)        # 205104 <gets_cnt>
    1b42:	f3 c3                	repz retq 

0000000000001b44 <save_term>:
    1b44:	8b 05 ba 35 20 00    	mov    0x2035ba(%rip),%eax        # 205104 <gets_cnt>
    1b4a:	8d 04 40             	lea    (%rax,%rax,2),%eax
    1b4d:	48 98                	cltq   
    1b4f:	48 8d 15 aa 29 20 00 	lea    0x2029aa(%rip),%rdx        # 204500 <gets_buf>
    1b56:	c6 04 02 00          	movb   $0x0,(%rdx,%rax,1)
    1b5a:	c3                   	retq   

0000000000001b5b <check_fail>:
    1b5b:	48 83 ec 08          	sub    $0x8,%rsp
    1b5f:	0f be 35 a2 35 20 00 	movsbl 0x2035a2(%rip),%esi        # 205108 <target_prefix>
    1b66:	48 8d 0d 93 29 20 00 	lea    0x202993(%rip),%rcx        # 204500 <gets_buf>
    1b6d:	8b 15 65 29 20 00    	mov    0x202965(%rip),%edx        # 2044d8 <check_level>
    1b73:	48 8d 3d 69 16 00 00 	lea    0x1669(%rip),%rdi        # 31e3 <_IO_stdin_used+0x383>
    1b7a:	b8 00 00 00 00       	mov    $0x0,%eax
    1b7f:	e8 8c f2 ff ff       	callq  e10 <printf@plt>
    1b84:	bf 01 00 00 00       	mov    $0x1,%edi
    1b89:	e8 d2 f3 ff ff       	callq  f60 <exit@plt>

0000000000001b8e <Gets>:
    1b8e:	41 54                	push   %r12
    1b90:	55                   	push   %rbp
    1b91:	53                   	push   %rbx
    1b92:	49 89 fc             	mov    %rdi,%r12
    1b95:	c7 05 65 35 20 00 00 	movl   $0x0,0x203565(%rip)        # 205104 <gets_cnt>
    1b9c:	00 00 00 
    1b9f:	48 89 fb             	mov    %rdi,%rbx
    1ba2:	eb 11                	jmp    1bb5 <Gets+0x27>
    1ba4:	48 8d 6b 01          	lea    0x1(%rbx),%rbp
    1ba8:	88 03                	mov    %al,(%rbx)
    1baa:	0f b6 f8             	movzbl %al,%edi
    1bad:	e8 39 ff ff ff       	callq  1aeb <save_char>
    1bb2:	48 89 eb             	mov    %rbp,%rbx
    1bb5:	48 8b 3d 14 29 20 00 	mov    0x202914(%rip),%rdi        # 2044d0 <infile>
    1bbc:	e8 0f f3 ff ff       	callq  ed0 <_IO_getc@plt>
    1bc1:	83 f8 ff             	cmp    $0xffffffff,%eax
    1bc4:	74 05                	je     1bcb <Gets+0x3d>
    1bc6:	83 f8 0a             	cmp    $0xa,%eax
    1bc9:	75 d9                	jne    1ba4 <Gets+0x16>
    1bcb:	c6 03 00             	movb   $0x0,(%rbx)
    1bce:	b8 00 00 00 00       	mov    $0x0,%eax
    1bd3:	e8 6c ff ff ff       	callq  1b44 <save_term>
    1bd8:	4c 89 e0             	mov    %r12,%rax
    1bdb:	5b                   	pop    %rbx
    1bdc:	5d                   	pop    %rbp
    1bdd:	41 5c                	pop    %r12
    1bdf:	c3                   	retq   

0000000000001be0 <notify_server>:
    1be0:	83 3d 01 29 20 00 00 	cmpl   $0x0,0x202901(%rip)        # 2044e8 <is_checker>
    1be7:	0f 85 de 00 00 00    	jne    1ccb <notify_server+0xeb>
    1bed:	55                   	push   %rbp
    1bee:	53                   	push   %rbx
    1bef:	48 81 ec 08 40 00 00 	sub    $0x4008,%rsp
    1bf6:	89 fb                	mov    %edi,%ebx
    1bf8:	8b 05 06 35 20 00    	mov    0x203506(%rip),%eax        # 205104 <gets_cnt>
    1bfe:	83 c0 64             	add    $0x64,%eax
    1c01:	3d 00 20 00 00       	cmp    $0x2000,%eax
    1c06:	0f 8f c1 00 00 00    	jg     1ccd <notify_server+0xed>
    1c0c:	44 0f be 0d f4 34 20 	movsbl 0x2034f4(%rip),%r9d        # 205108 <target_prefix>
    1c13:	00 
    1c14:	83 3d 35 25 20 00 00 	cmpl   $0x0,0x202535(%rip)        # 204150 <notify>
    1c1b:	0f 84 c7 00 00 00    	je     1ce8 <notify_server+0x108>
    1c21:	44 8b 05 b8 28 20 00 	mov    0x2028b8(%rip),%r8d        # 2044e0 <authkey>
    1c28:	85 db                	test   %ebx,%ebx
    1c2a:	0f 84 c3 00 00 00    	je     1cf3 <notify_server+0x113>
    1c30:	48 8d 2d c2 15 00 00 	lea    0x15c2(%rip),%rbp        # 31f9 <_IO_stdin_used+0x399>
    1c37:	48 8d bc 24 00 20 00 	lea    0x2000(%rsp),%rdi
    1c3e:	00 
    1c3f:	48 8d 05 ba 28 20 00 	lea    0x2028ba(%rip),%rax        # 204500 <gets_buf>
    1c46:	50                   	push   %rax
    1c47:	56                   	push   %rsi
    1c48:	48 89 e9             	mov    %rbp,%rcx
    1c4b:	8b 15 d7 24 20 00    	mov    0x2024d7(%rip),%edx        # 204128 <target_id>
    1c51:	48 8d 35 ab 15 00 00 	lea    0x15ab(%rip),%rsi        # 3203 <_IO_stdin_used+0x3a3>
    1c58:	b8 00 00 00 00       	mov    $0x0,%eax
    1c5d:	e8 ee f2 ff ff       	callq  f50 <sprintf@plt>
    1c62:	48 83 c4 10          	add    $0x10,%rsp
    1c66:	83 3d e3 24 20 00 00 	cmpl   $0x0,0x2024e3(%rip)        # 204150 <notify>
    1c6d:	0f 84 b8 00 00 00    	je     1d2b <notify_server+0x14b>
    1c73:	85 db                	test   %ebx,%ebx
    1c75:	0f 84 a2 00 00 00    	je     1d1d <notify_server+0x13d>
    1c7b:	48 8d 8c 24 00 20 00 	lea    0x2000(%rsp),%rcx
    1c82:	00 
    1c83:	49 89 e1             	mov    %rsp,%r9
    1c86:	41 b8 00 00 00 00    	mov    $0x0,%r8d
    1c8c:	48 8b 15 a5 24 20 00 	mov    0x2024a5(%rip),%rdx        # 204138 <lab>
    1c93:	48 8b 35 a6 24 20 00 	mov    0x2024a6(%rip),%rsi        # 204140 <course>
    1c9a:	48 8b 3d 8f 24 20 00 	mov    0x20248f(%rip),%rdi        # 204130 <user_id>
    1ca1:	e8 6e 10 00 00       	callq  2d14 <driver_post>
    1ca6:	85 c0                	test   %eax,%eax
    1ca8:	78 55                	js     1cff <notify_server+0x11f>
    1caa:	48 8d 3d 97 16 00 00 	lea    0x1697(%rip),%rdi        # 3348 <_IO_stdin_used+0x4e8>
    1cb1:	e8 2a f1 ff ff       	callq  de0 <puts@plt>
    1cb6:	48 8d 3d 6e 15 00 00 	lea    0x156e(%rip),%rdi        # 322b <_IO_stdin_used+0x3cb>
    1cbd:	e8 1e f1 ff ff       	callq  de0 <puts@plt>
    1cc2:	48 81 c4 08 40 00 00 	add    $0x4008,%rsp
    1cc9:	5b                   	pop    %rbx
    1cca:	5d                   	pop    %rbp
    1ccb:	f3 c3                	repz retq 
    1ccd:	48 8d 3d 44 16 00 00 	lea    0x1644(%rip),%rdi        # 3318 <_IO_stdin_used+0x4b8>
    1cd4:	b8 00 00 00 00       	mov    $0x0,%eax
    1cd9:	e8 32 f1 ff ff       	callq  e10 <printf@plt>
    1cde:	bf 01 00 00 00       	mov    $0x1,%edi
    1ce3:	e8 78 f2 ff ff       	callq  f60 <exit@plt>
    1ce8:	41 b8 ff ff ff ff    	mov    $0xffffffff,%r8d
    1cee:	e9 35 ff ff ff       	jmpq   1c28 <notify_server+0x48>
    1cf3:	48 8d 2d 04 15 00 00 	lea    0x1504(%rip),%rbp        # 31fe <_IO_stdin_used+0x39e>
    1cfa:	e9 38 ff ff ff       	jmpq   1c37 <notify_server+0x57>
    1cff:	48 89 e6             	mov    %rsp,%rsi
    1d02:	48 8d 3d 16 15 00 00 	lea    0x1516(%rip),%rdi        # 321f <_IO_stdin_used+0x3bf>
    1d09:	b8 00 00 00 00       	mov    $0x0,%eax
    1d0e:	e8 fd f0 ff ff       	callq  e10 <printf@plt>
    1d13:	bf 01 00 00 00       	mov    $0x1,%edi
    1d18:	e8 43 f2 ff ff       	callq  f60 <exit@plt>
    1d1d:	48 8d 3d 11 15 00 00 	lea    0x1511(%rip),%rdi        # 3235 <_IO_stdin_used+0x3d5>
    1d24:	e8 b7 f0 ff ff       	callq  de0 <puts@plt>
    1d29:	eb 97                	jmp    1cc2 <notify_server+0xe2>
    1d2b:	48 89 ee             	mov    %rbp,%rsi
    1d2e:	48 8d 3d 4b 16 00 00 	lea    0x164b(%rip),%rdi        # 3380 <_IO_stdin_used+0x520>
    1d35:	b8 00 00 00 00       	mov    $0x0,%eax
    1d3a:	e8 d1 f0 ff ff       	callq  e10 <printf@plt>
    1d3f:	48 8b 35 ea 23 20 00 	mov    0x2023ea(%rip),%rsi        # 204130 <user_id>
    1d46:	48 8d 3d ef 14 00 00 	lea    0x14ef(%rip),%rdi        # 323c <_IO_stdin_used+0x3dc>
    1d4d:	b8 00 00 00 00       	mov    $0x0,%eax
    1d52:	e8 b9 f0 ff ff       	callq  e10 <printf@plt>
    1d57:	48 8b 35 e2 23 20 00 	mov    0x2023e2(%rip),%rsi        # 204140 <course>
    1d5e:	48 8d 3d e4 14 00 00 	lea    0x14e4(%rip),%rdi        # 3249 <_IO_stdin_used+0x3e9>
    1d65:	b8 00 00 00 00       	mov    $0x0,%eax
    1d6a:	e8 a1 f0 ff ff       	callq  e10 <printf@plt>
    1d6f:	48 8b 35 c2 23 20 00 	mov    0x2023c2(%rip),%rsi        # 204138 <lab>
    1d76:	48 8d 3d d8 14 00 00 	lea    0x14d8(%rip),%rdi        # 3255 <_IO_stdin_used+0x3f5>
    1d7d:	b8 00 00 00 00       	mov    $0x0,%eax
    1d82:	e8 89 f0 ff ff       	callq  e10 <printf@plt>
    1d87:	48 8d b4 24 00 20 00 	lea    0x2000(%rsp),%rsi
    1d8e:	00 
    1d8f:	48 8d 3d c8 14 00 00 	lea    0x14c8(%rip),%rdi        # 325e <_IO_stdin_used+0x3fe>
    1d96:	b8 00 00 00 00       	mov    $0x0,%eax
    1d9b:	e8 70 f0 ff ff       	callq  e10 <printf@plt>
    1da0:	e9 1d ff ff ff       	jmpq   1cc2 <notify_server+0xe2>

0000000000001da5 <validate>:
    1da5:	53                   	push   %rbx
    1da6:	89 fb                	mov    %edi,%ebx
    1da8:	83 3d 39 27 20 00 00 	cmpl   $0x0,0x202739(%rip)        # 2044e8 <is_checker>
    1daf:	74 68                	je     1e19 <validate+0x74>
    1db1:	39 3d 25 27 20 00    	cmp    %edi,0x202725(%rip)        # 2044dc <vlevel>
    1db7:	75 2d                	jne    1de6 <validate+0x41>
    1db9:	8b 35 19 27 20 00    	mov    0x202719(%rip),%esi        # 2044d8 <check_level>
    1dbf:	39 f7                	cmp    %esi,%edi
    1dc1:	75 39                	jne    1dfc <validate+0x57>
    1dc3:	0f be 35 3e 33 20 00 	movsbl 0x20333e(%rip),%esi        # 205108 <target_prefix>
    1dca:	48 8d 0d 2f 27 20 00 	lea    0x20272f(%rip),%rcx        # 204500 <gets_buf>
    1dd1:	89 fa                	mov    %edi,%edx
    1dd3:	48 8d 3d ae 14 00 00 	lea    0x14ae(%rip),%rdi        # 3288 <_IO_stdin_used+0x428>
    1dda:	b8 00 00 00 00       	mov    $0x0,%eax
    1ddf:	e8 2c f0 ff ff       	callq  e10 <printf@plt>
    1de4:	5b                   	pop    %rbx
    1de5:	c3                   	retq   
    1de6:	48 8d 3d 7d 14 00 00 	lea    0x147d(%rip),%rdi        # 326a <_IO_stdin_used+0x40a>
    1ded:	e8 ee ef ff ff       	callq  de0 <puts@plt>
    1df2:	b8 00 00 00 00       	mov    $0x0,%eax
    1df7:	e8 5f fd ff ff       	callq  1b5b <check_fail>
    1dfc:	89 fa                	mov    %edi,%edx
    1dfe:	48 8d 3d a3 15 00 00 	lea    0x15a3(%rip),%rdi        # 33a8 <_IO_stdin_used+0x548>
    1e05:	b8 00 00 00 00       	mov    $0x0,%eax
    1e0a:	e8 01 f0 ff ff       	callq  e10 <printf@plt>
    1e0f:	b8 00 00 00 00       	mov    $0x0,%eax
    1e14:	e8 42 fd ff ff       	callq  1b5b <check_fail>
    1e19:	3b 3d bd 26 20 00    	cmp    0x2026bd(%rip),%edi        # 2044dc <vlevel>
    1e1f:	74 1a                	je     1e3b <validate+0x96>
    1e21:	48 8d 3d 42 14 00 00 	lea    0x1442(%rip),%rdi        # 326a <_IO_stdin_used+0x40a>
    1e28:	e8 b3 ef ff ff       	callq  de0 <puts@plt>
    1e2d:	89 de                	mov    %ebx,%esi
    1e2f:	bf 00 00 00 00       	mov    $0x0,%edi
    1e34:	e8 a7 fd ff ff       	callq  1be0 <notify_server>
    1e39:	eb a9                	jmp    1de4 <validate+0x3f>
    1e3b:	0f be 15 c6 32 20 00 	movsbl 0x2032c6(%rip),%edx        # 205108 <target_prefix>
    1e42:	89 fe                	mov    %edi,%esi
    1e44:	48 8d 3d 85 15 00 00 	lea    0x1585(%rip),%rdi        # 33d0 <_IO_stdin_used+0x570>
    1e4b:	b8 00 00 00 00       	mov    $0x0,%eax
    1e50:	e8 bb ef ff ff       	callq  e10 <printf@plt>
    1e55:	89 de                	mov    %ebx,%esi
    1e57:	bf 01 00 00 00       	mov    $0x1,%edi
    1e5c:	e8 7f fd ff ff       	callq  1be0 <notify_server>
    1e61:	eb 81                	jmp    1de4 <validate+0x3f>

0000000000001e63 <fail>:
    1e63:	48 83 ec 08          	sub    $0x8,%rsp
    1e67:	83 3d 7a 26 20 00 00 	cmpl   $0x0,0x20267a(%rip)        # 2044e8 <is_checker>
    1e6e:	75 11                	jne    1e81 <fail+0x1e>
    1e70:	89 fe                	mov    %edi,%esi
    1e72:	bf 00 00 00 00       	mov    $0x0,%edi
    1e77:	e8 64 fd ff ff       	callq  1be0 <notify_server>
    1e7c:	48 83 c4 08          	add    $0x8,%rsp
    1e80:	c3                   	retq   
    1e81:	b8 00 00 00 00       	mov    $0x0,%eax
    1e86:	e8 d0 fc ff ff       	callq  1b5b <check_fail>

0000000000001e8b <bushandler>:
    1e8b:	48 83 ec 08          	sub    $0x8,%rsp
    1e8f:	83 3d 52 26 20 00 00 	cmpl   $0x0,0x202652(%rip)        # 2044e8 <is_checker>
    1e96:	74 16                	je     1eae <bushandler+0x23>
    1e98:	48 8d 3d fe 13 00 00 	lea    0x13fe(%rip),%rdi        # 329d <_IO_stdin_used+0x43d>
    1e9f:	e8 3c ef ff ff       	callq  de0 <puts@plt>
    1ea4:	b8 00 00 00 00       	mov    $0x0,%eax
    1ea9:	e8 ad fc ff ff       	callq  1b5b <check_fail>
    1eae:	48 8d 3d 53 15 00 00 	lea    0x1553(%rip),%rdi        # 3408 <_IO_stdin_used+0x5a8>
    1eb5:	e8 26 ef ff ff       	callq  de0 <puts@plt>
    1eba:	48 8d 3d e6 13 00 00 	lea    0x13e6(%rip),%rdi        # 32a7 <_IO_stdin_used+0x447>
    1ec1:	e8 1a ef ff ff       	callq  de0 <puts@plt>
    1ec6:	be 00 00 00 00       	mov    $0x0,%esi
    1ecb:	bf 00 00 00 00       	mov    $0x0,%edi
    1ed0:	e8 0b fd ff ff       	callq  1be0 <notify_server>
    1ed5:	bf 01 00 00 00       	mov    $0x1,%edi
    1eda:	e8 81 f0 ff ff       	callq  f60 <exit@plt>

0000000000001edf <seghandler>:
    1edf:	48 83 ec 08          	sub    $0x8,%rsp
    1ee3:	83 3d fe 25 20 00 00 	cmpl   $0x0,0x2025fe(%rip)        # 2044e8 <is_checker>
    1eea:	74 16                	je     1f02 <seghandler+0x23>
    1eec:	48 8d 3d ca 13 00 00 	lea    0x13ca(%rip),%rdi        # 32bd <_IO_stdin_used+0x45d>
    1ef3:	e8 e8 ee ff ff       	callq  de0 <puts@plt>
    1ef8:	b8 00 00 00 00       	mov    $0x0,%eax
    1efd:	e8 59 fc ff ff       	callq  1b5b <check_fail>
    1f02:	48 8d 3d 1f 15 00 00 	lea    0x151f(%rip),%rdi        # 3428 <_IO_stdin_used+0x5c8>
    1f09:	e8 d2 ee ff ff       	callq  de0 <puts@plt>
    1f0e:	48 8d 3d 92 13 00 00 	lea    0x1392(%rip),%rdi        # 32a7 <_IO_stdin_used+0x447>
    1f15:	e8 c6 ee ff ff       	callq  de0 <puts@plt>
    1f1a:	be 00 00 00 00       	mov    $0x0,%esi
    1f1f:	bf 00 00 00 00       	mov    $0x0,%edi
    1f24:	e8 b7 fc ff ff       	callq  1be0 <notify_server>
    1f29:	bf 01 00 00 00       	mov    $0x1,%edi
    1f2e:	e8 2d f0 ff ff       	callq  f60 <exit@plt>

0000000000001f33 <illegalhandler>:
    1f33:	48 83 ec 08          	sub    $0x8,%rsp
    1f37:	83 3d aa 25 20 00 00 	cmpl   $0x0,0x2025aa(%rip)        # 2044e8 <is_checker>
    1f3e:	74 16                	je     1f56 <illegalhandler+0x23>
    1f40:	48 8d 3d 89 13 00 00 	lea    0x1389(%rip),%rdi        # 32d0 <_IO_stdin_used+0x470>
    1f47:	e8 94 ee ff ff       	callq  de0 <puts@plt>
    1f4c:	b8 00 00 00 00       	mov    $0x0,%eax
    1f51:	e8 05 fc ff ff       	callq  1b5b <check_fail>
    1f56:	48 8d 3d f3 14 00 00 	lea    0x14f3(%rip),%rdi        # 3450 <_IO_stdin_used+0x5f0>
    1f5d:	e8 7e ee ff ff       	callq  de0 <puts@plt>
    1f62:	48 8d 3d 3e 13 00 00 	lea    0x133e(%rip),%rdi        # 32a7 <_IO_stdin_used+0x447>
    1f69:	e8 72 ee ff ff       	callq  de0 <puts@plt>
    1f6e:	be 00 00 00 00       	mov    $0x0,%esi
    1f73:	bf 00 00 00 00       	mov    $0x0,%edi
    1f78:	e8 63 fc ff ff       	callq  1be0 <notify_server>
    1f7d:	bf 01 00 00 00       	mov    $0x1,%edi
    1f82:	e8 d9 ef ff ff       	callq  f60 <exit@plt>

0000000000001f87 <sigalrmhandler>:
    1f87:	48 83 ec 08          	sub    $0x8,%rsp
    1f8b:	83 3d 56 25 20 00 00 	cmpl   $0x0,0x202556(%rip)        # 2044e8 <is_checker>
    1f92:	74 16                	je     1faa <sigalrmhandler+0x23>
    1f94:	48 8d 3d 49 13 00 00 	lea    0x1349(%rip),%rdi        # 32e4 <_IO_stdin_used+0x484>
    1f9b:	e8 40 ee ff ff       	callq  de0 <puts@plt>
    1fa0:	b8 00 00 00 00       	mov    $0x0,%eax
    1fa5:	e8 b1 fb ff ff       	callq  1b5b <check_fail>
    1faa:	be 05 00 00 00       	mov    $0x5,%esi
    1faf:	48 8d 3d ca 14 00 00 	lea    0x14ca(%rip),%rdi        # 3480 <_IO_stdin_used+0x620>
    1fb6:	b8 00 00 00 00       	mov    $0x0,%eax
    1fbb:	e8 50 ee ff ff       	callq  e10 <printf@plt>
    1fc0:	be 00 00 00 00       	mov    $0x0,%esi
    1fc5:	bf 00 00 00 00       	mov    $0x0,%edi
    1fca:	e8 11 fc ff ff       	callq  1be0 <notify_server>
    1fcf:	bf 01 00 00 00       	mov    $0x1,%edi
    1fd4:	e8 87 ef ff ff       	callq  f60 <exit@plt>

0000000000001fd9 <launch>:
    1fd9:	55                   	push   %rbp
    1fda:	48 89 e5             	mov    %rsp,%rbp
    1fdd:	48 89 fa             	mov    %rdi,%rdx
    1fe0:	48 8d 47 1e          	lea    0x1e(%rdi),%rax
    1fe4:	48 83 e0 f0          	and    $0xfffffffffffffff0,%rax
    1fe8:	48 29 c4             	sub    %rax,%rsp
    1feb:	48 8d 7c 24 0f       	lea    0xf(%rsp),%rdi
    1ff0:	48 83 e7 f0          	and    $0xfffffffffffffff0,%rdi
    1ff4:	be f4 00 00 00       	mov    $0xf4,%esi
    1ff9:	e8 22 ee ff ff       	callq  e20 <memset@plt>
    1ffe:	48 8b 05 5b 21 20 00 	mov    0x20215b(%rip),%rax        # 204160 <stdin@@GLIBC_2.2.5>
    2005:	48 39 05 c4 24 20 00 	cmp    %rax,0x2024c4(%rip)        # 2044d0 <infile>
    200c:	74 2b                	je     2039 <launch+0x60>
    200e:	c7 05 c4 24 20 00 00 	movl   $0x0,0x2024c4(%rip)        # 2044dc <vlevel>
    2015:	00 00 00 
    2018:	b8 00 00 00 00       	mov    $0x0,%eax
    201d:	e8 a3 fa ff ff       	callq  1ac5 <test>
    2022:	83 3d bf 24 20 00 00 	cmpl   $0x0,0x2024bf(%rip)        # 2044e8 <is_checker>
    2029:	75 21                	jne    204c <launch+0x73>
    202b:	48 8d 3d d2 12 00 00 	lea    0x12d2(%rip),%rdi        # 3304 <_IO_stdin_used+0x4a4>
    2032:	e8 a9 ed ff ff       	callq  de0 <puts@plt>
    2037:	c9                   	leaveq 
    2038:	c3                   	retq   
    2039:	48 8d 3d ac 12 00 00 	lea    0x12ac(%rip),%rdi        # 32ec <_IO_stdin_used+0x48c>
    2040:	b8 00 00 00 00       	mov    $0x0,%eax
    2045:	e8 c6 ed ff ff       	callq  e10 <printf@plt>
    204a:	eb c2                	jmp    200e <launch+0x35>
    204c:	48 8d 3d a6 12 00 00 	lea    0x12a6(%rip),%rdi        # 32f9 <_IO_stdin_used+0x499>
    2053:	e8 88 ed ff ff       	callq  de0 <puts@plt>
    2058:	b8 00 00 00 00       	mov    $0x0,%eax
    205d:	e8 f9 fa ff ff       	callq  1b5b <check_fail>

0000000000002062 <stable_launch>:
    2062:	53                   	push   %rbx
    2063:	48 89 3d 5e 24 20 00 	mov    %rdi,0x20245e(%rip)        # 2044c8 <global_offset>
    206a:	41 b9 00 00 00 00    	mov    $0x0,%r9d
    2070:	41 b8 00 00 00 00    	mov    $0x0,%r8d
    2076:	b9 32 01 00 00       	mov    $0x132,%ecx
    207b:	ba 07 00 00 00       	mov    $0x7,%edx
    2080:	be 00 00 10 00       	mov    $0x100000,%esi
    2085:	bf 00 60 58 55       	mov    $0x55586000,%edi
    208a:	e8 71 ed ff ff       	callq  e00 <mmap@plt>
    208f:	48 89 c3             	mov    %rax,%rbx
    2092:	48 3d 00 60 58 55    	cmp    $0x55586000,%rax
    2098:	75 43                	jne    20dd <stable_launch+0x7b>
    209a:	48 8d 90 f8 ff 0f 00 	lea    0xffff8(%rax),%rdx
    20a1:	48 89 15 68 30 20 00 	mov    %rdx,0x203068(%rip)        # 205110 <stack_top>
    20a8:	48 89 e0             	mov    %rsp,%rax
    20ab:	48 89 d4             	mov    %rdx,%rsp
    20ae:	48 89 c2             	mov    %rax,%rdx
    20b1:	48 89 15 08 24 20 00 	mov    %rdx,0x202408(%rip)        # 2044c0 <global_save_stack>
    20b8:	48 8b 3d 09 24 20 00 	mov    0x202409(%rip),%rdi        # 2044c8 <global_offset>
    20bf:	e8 15 ff ff ff       	callq  1fd9 <launch>
    20c4:	48 8b 05 f5 23 20 00 	mov    0x2023f5(%rip),%rax        # 2044c0 <global_save_stack>
    20cb:	48 89 c4             	mov    %rax,%rsp
    20ce:	be 00 00 10 00       	mov    $0x100000,%esi
    20d3:	48 89 df             	mov    %rbx,%rdi
    20d6:	e8 15 ee ff ff       	callq  ef0 <munmap@plt>
    20db:	5b                   	pop    %rbx
    20dc:	c3                   	retq   
    20dd:	be 00 00 10 00       	mov    $0x100000,%esi
    20e2:	48 89 c7             	mov    %rax,%rdi
    20e5:	e8 06 ee ff ff       	callq  ef0 <munmap@plt>
    20ea:	ba 00 60 58 55       	mov    $0x55586000,%edx
    20ef:	48 8d 35 c2 13 00 00 	lea    0x13c2(%rip),%rsi        # 34b8 <_IO_stdin_used+0x658>
    20f6:	48 8b 3d 83 20 20 00 	mov    0x202083(%rip),%rdi        # 204180 <stderr@@GLIBC_2.2.5>
    20fd:	b8 00 00 00 00       	mov    $0x0,%eax
    2102:	e8 79 ed ff ff       	callq  e80 <fprintf@plt>
    2107:	bf 01 00 00 00       	mov    $0x1,%edi
    210c:	e8 4f ee ff ff       	callq  f60 <exit@plt>

0000000000002111 <rio_readinitb>:
    2111:	89 37                	mov    %esi,(%rdi)
    2113:	c7 47 04 00 00 00 00 	movl   $0x0,0x4(%rdi)
    211a:	48 8d 47 10          	lea    0x10(%rdi),%rax
    211e:	48 89 47 08          	mov    %rax,0x8(%rdi)
    2122:	c3                   	retq   

0000000000002123 <sigalrm_handler>:
    2123:	48 83 ec 08          	sub    $0x8,%rsp
    2127:	ba 00 00 00 00       	mov    $0x0,%edx
    212c:	48 8d 35 bd 13 00 00 	lea    0x13bd(%rip),%rsi        # 34f0 <trans_char+0x10>
    2133:	48 8b 3d 46 20 20 00 	mov    0x202046(%rip),%rdi        # 204180 <stderr@@GLIBC_2.2.5>
    213a:	b8 00 00 00 00       	mov    $0x0,%eax
    213f:	e8 3c ed ff ff       	callq  e80 <fprintf@plt>
    2144:	bf 01 00 00 00       	mov    $0x1,%edi
    2149:	e8 12 ee ff ff       	callq  f60 <exit@plt>

000000000000214e <urlencode>:
    214e:	41 54                	push   %r12
    2150:	55                   	push   %rbp
    2151:	53                   	push   %rbx
    2152:	48 83 ec 10          	sub    $0x10,%rsp
    2156:	48 89 fb             	mov    %rdi,%rbx
    2159:	48 89 f5             	mov    %rsi,%rbp
    215c:	b8 00 00 00 00       	mov    $0x0,%eax
    2161:	48 c7 c1 ff ff ff ff 	mov    $0xffffffffffffffff,%rcx
    2168:	f2 ae                	repnz scas %es:(%rdi),%al
    216a:	48 f7 d1             	not    %rcx
    216d:	8d 41 ff             	lea    -0x1(%rcx),%eax
    2170:	eb 0e                	jmp    2180 <urlencode+0x32>
    2172:	88 55 00             	mov    %dl,0x0(%rbp)
    2175:	48 8d 6d 01          	lea    0x1(%rbp),%rbp
    2179:	48 83 c3 01          	add    $0x1,%rbx
    217d:	44 89 e0             	mov    %r12d,%eax
    2180:	44 8d 60 ff          	lea    -0x1(%rax),%r12d
    2184:	85 c0                	test   %eax,%eax
    2186:	0f 84 95 00 00 00    	je     2221 <urlencode+0xd3>
    218c:	0f b6 13             	movzbl (%rbx),%edx
    218f:	80 fa 2a             	cmp    $0x2a,%dl
    2192:	0f 94 c1             	sete   %cl
    2195:	80 fa 2d             	cmp    $0x2d,%dl
    2198:	0f 94 c0             	sete   %al
    219b:	08 c1                	or     %al,%cl
    219d:	75 d3                	jne    2172 <urlencode+0x24>
    219f:	80 fa 2e             	cmp    $0x2e,%dl
    21a2:	74 ce                	je     2172 <urlencode+0x24>
    21a4:	80 fa 5f             	cmp    $0x5f,%dl
    21a7:	74 c9                	je     2172 <urlencode+0x24>
    21a9:	8d 42 d0             	lea    -0x30(%rdx),%eax
    21ac:	3c 09                	cmp    $0x9,%al
    21ae:	76 c2                	jbe    2172 <urlencode+0x24>
    21b0:	8d 42 bf             	lea    -0x41(%rdx),%eax
    21b3:	3c 19                	cmp    $0x19,%al
    21b5:	76 bb                	jbe    2172 <urlencode+0x24>
    21b7:	8d 42 9f             	lea    -0x61(%rdx),%eax
    21ba:	3c 19                	cmp    $0x19,%al
    21bc:	76 b4                	jbe    2172 <urlencode+0x24>
    21be:	80 fa 20             	cmp    $0x20,%dl
    21c1:	74 4c                	je     220f <urlencode+0xc1>
    21c3:	8d 42 e0             	lea    -0x20(%rdx),%eax
    21c6:	3c 5f                	cmp    $0x5f,%al
    21c8:	0f 96 c1             	setbe  %cl
    21cb:	80 fa 09             	cmp    $0x9,%dl
    21ce:	0f 94 c0             	sete   %al
    21d1:	08 c1                	or     %al,%cl
    21d3:	74 47                	je     221c <urlencode+0xce>
    21d5:	0f b6 d2             	movzbl %dl,%edx
    21d8:	48 8d 7c 24 08       	lea    0x8(%rsp),%rdi
    21dd:	48 8d 35 a4 13 00 00 	lea    0x13a4(%rip),%rsi        # 3588 <trans_char+0xa8>
    21e4:	b8 00 00 00 00       	mov    $0x0,%eax
    21e9:	e8 62 ed ff ff       	callq  f50 <sprintf@plt>
    21ee:	0f b6 44 24 08       	movzbl 0x8(%rsp),%eax
    21f3:	88 45 00             	mov    %al,0x0(%rbp)
    21f6:	0f b6 44 24 09       	movzbl 0x9(%rsp),%eax
    21fb:	88 45 01             	mov    %al,0x1(%rbp)
    21fe:	0f b6 44 24 0a       	movzbl 0xa(%rsp),%eax
    2203:	88 45 02             	mov    %al,0x2(%rbp)
    2206:	48 8d 6d 03          	lea    0x3(%rbp),%rbp
    220a:	e9 6a ff ff ff       	jmpq   2179 <urlencode+0x2b>
    220f:	c6 45 00 2b          	movb   $0x2b,0x0(%rbp)
    2213:	48 8d 6d 01          	lea    0x1(%rbp),%rbp
    2217:	e9 5d ff ff ff       	jmpq   2179 <urlencode+0x2b>
    221c:	b8 ff ff ff ff       	mov    $0xffffffff,%eax
    2221:	48 83 c4 10          	add    $0x10,%rsp
    2225:	5b                   	pop    %rbx
    2226:	5d                   	pop    %rbp
    2227:	41 5c                	pop    %r12
    2229:	c3                   	retq   

000000000000222a <rio_writen>:
    222a:	41 55                	push   %r13
    222c:	41 54                	push   %r12
    222e:	55                   	push   %rbp
    222f:	53                   	push   %rbx
    2230:	48 83 ec 08          	sub    $0x8,%rsp
    2234:	41 89 fc             	mov    %edi,%r12d
    2237:	49 89 d5             	mov    %rdx,%r13
    223a:	48 89 f5             	mov    %rsi,%rbp
    223d:	48 89 d3             	mov    %rdx,%rbx
    2240:	eb 06                	jmp    2248 <rio_writen+0x1e>
    2242:	48 29 c3             	sub    %rax,%rbx
    2245:	48 01 c5             	add    %rax,%rbp
    2248:	48 85 db             	test   %rbx,%rbx
    224b:	74 24                	je     2271 <rio_writen+0x47>
    224d:	48 89 da             	mov    %rbx,%rdx
    2250:	48 89 ee             	mov    %rbp,%rsi
    2253:	44 89 e7             	mov    %r12d,%edi
    2256:	e8 95 eb ff ff       	callq  df0 <write@plt>
    225b:	48 85 c0             	test   %rax,%rax
    225e:	7f e2                	jg     2242 <rio_writen+0x18>
    2260:	e8 3b eb ff ff       	callq  da0 <__errno_location@plt>
    2265:	83 38 04             	cmpl   $0x4,(%rax)
    2268:	75 15                	jne    227f <rio_writen+0x55>
    226a:	b8 00 00 00 00       	mov    $0x0,%eax
    226f:	eb d1                	jmp    2242 <rio_writen+0x18>
    2271:	4c 89 e8             	mov    %r13,%rax
    2274:	48 83 c4 08          	add    $0x8,%rsp
    2278:	5b                   	pop    %rbx
    2279:	5d                   	pop    %rbp
    227a:	41 5c                	pop    %r12
    227c:	41 5d                	pop    %r13
    227e:	c3                   	retq   
    227f:	48 c7 c0 ff ff ff ff 	mov    $0xffffffffffffffff,%rax
    2286:	eb ec                	jmp    2274 <rio_writen+0x4a>

0000000000002288 <rio_read>:
    2288:	41 55                	push   %r13
    228a:	41 54                	push   %r12
    228c:	55                   	push   %rbp
    228d:	53                   	push   %rbx
    228e:	48 83 ec 08          	sub    $0x8,%rsp
    2292:	48 89 fb             	mov    %rdi,%rbx
    2295:	49 89 f5             	mov    %rsi,%r13
    2298:	49 89 d4             	mov    %rdx,%r12
    229b:	eb 0a                	jmp    22a7 <rio_read+0x1f>
    229d:	e8 fe ea ff ff       	callq  da0 <__errno_location@plt>
    22a2:	83 38 04             	cmpl   $0x4,(%rax)
    22a5:	75 5c                	jne    2303 <rio_read+0x7b>
    22a7:	8b 6b 04             	mov    0x4(%rbx),%ebp
    22aa:	85 ed                	test   %ebp,%ebp
    22ac:	7f 24                	jg     22d2 <rio_read+0x4a>
    22ae:	48 8d 6b 10          	lea    0x10(%rbx),%rbp
    22b2:	ba 00 20 00 00       	mov    $0x2000,%edx
    22b7:	48 89 ee             	mov    %rbp,%rsi
    22ba:	8b 3b                	mov    (%rbx),%edi
    22bc:	e8 8f eb ff ff       	callq  e50 <read@plt>
    22c1:	89 43 04             	mov    %eax,0x4(%rbx)
    22c4:	85 c0                	test   %eax,%eax
    22c6:	78 d5                	js     229d <rio_read+0x15>
    22c8:	85 c0                	test   %eax,%eax
    22ca:	74 40                	je     230c <rio_read+0x84>
    22cc:	48 89 6b 08          	mov    %rbp,0x8(%rbx)
    22d0:	eb d5                	jmp    22a7 <rio_read+0x1f>
    22d2:	89 e8                	mov    %ebp,%eax
    22d4:	49 39 c4             	cmp    %rax,%r12
    22d7:	77 03                	ja     22dc <rio_read+0x54>
    22d9:	44 89 e5             	mov    %r12d,%ebp
    22dc:	4c 63 e5             	movslq %ebp,%r12
    22df:	48 8b 73 08          	mov    0x8(%rbx),%rsi
    22e3:	4c 89 e2             	mov    %r12,%rdx
    22e6:	4c 89 ef             	mov    %r13,%rdi
    22e9:	e8 b2 eb ff ff       	callq  ea0 <memcpy@plt>
    22ee:	4c 01 63 08          	add    %r12,0x8(%rbx)
    22f2:	29 6b 04             	sub    %ebp,0x4(%rbx)
    22f5:	4c 89 e0             	mov    %r12,%rax
    22f8:	48 83 c4 08          	add    $0x8,%rsp
    22fc:	5b                   	pop    %rbx
    22fd:	5d                   	pop    %rbp
    22fe:	41 5c                	pop    %r12
    2300:	41 5d                	pop    %r13
    2302:	c3                   	retq   
    2303:	48 c7 c0 ff ff ff ff 	mov    $0xffffffffffffffff,%rax
    230a:	eb ec                	jmp    22f8 <rio_read+0x70>
    230c:	b8 00 00 00 00       	mov    $0x0,%eax
    2311:	eb e5                	jmp    22f8 <rio_read+0x70>

0000000000002313 <rio_readlineb>:
    2313:	41 55                	push   %r13
    2315:	41 54                	push   %r12
    2317:	55                   	push   %rbp
    2318:	53                   	push   %rbx
    2319:	48 83 ec 18          	sub    $0x18,%rsp
    231d:	49 89 fd             	mov    %rdi,%r13
    2320:	49 89 d4             	mov    %rdx,%r12
    2323:	48 89 f5             	mov    %rsi,%rbp
    2326:	bb 01 00 00 00       	mov    $0x1,%ebx
    232b:	4c 39 e3             	cmp    %r12,%rbx
    232e:	73 47                	jae    2377 <rio_readlineb+0x64>
    2330:	48 8d 74 24 0f       	lea    0xf(%rsp),%rsi
    2335:	ba 01 00 00 00       	mov    $0x1,%edx
    233a:	4c 89 ef             	mov    %r13,%rdi
    233d:	e8 46 ff ff ff       	callq  2288 <rio_read>
    2342:	83 f8 01             	cmp    $0x1,%eax
    2345:	75 1c                	jne    2363 <rio_readlineb+0x50>
    2347:	48 8d 45 01          	lea    0x1(%rbp),%rax
    234b:	0f b6 54 24 0f       	movzbl 0xf(%rsp),%edx
    2350:	88 55 00             	mov    %dl,0x0(%rbp)
    2353:	80 7c 24 0f 0a       	cmpb   $0xa,0xf(%rsp)
    2358:	74 1a                	je     2374 <rio_readlineb+0x61>
    235a:	48 83 c3 01          	add    $0x1,%rbx
    235e:	48 89 c5             	mov    %rax,%rbp
    2361:	eb c8                	jmp    232b <rio_readlineb+0x18>
    2363:	85 c0                	test   %eax,%eax
    2365:	75 22                	jne    2389 <rio_readlineb+0x76>
    2367:	48 83 fb 01          	cmp    $0x1,%rbx
    236b:	75 0a                	jne    2377 <rio_readlineb+0x64>
    236d:	b8 00 00 00 00       	mov    $0x0,%eax
    2372:	eb 0a                	jmp    237e <rio_readlineb+0x6b>
    2374:	48 89 c5             	mov    %rax,%rbp
    2377:	c6 45 00 00          	movb   $0x0,0x0(%rbp)
    237b:	48 89 d8             	mov    %rbx,%rax
    237e:	48 83 c4 18          	add    $0x18,%rsp
    2382:	5b                   	pop    %rbx
    2383:	5d                   	pop    %rbp
    2384:	41 5c                	pop    %r12
    2386:	41 5d                	pop    %r13
    2388:	c3                   	retq   
    2389:	48 c7 c0 ff ff ff ff 	mov    $0xffffffffffffffff,%rax
    2390:	eb ec                	jmp    237e <rio_readlineb+0x6b>

0000000000002392 <submitr>:
    2392:	41 57                	push   %r15
    2394:	41 56                	push   %r14
    2396:	41 55                	push   %r13
    2398:	41 54                	push   %r12
    239a:	55                   	push   %rbp
    239b:	53                   	push   %rbx
    239c:	48 81 ec 58 a0 00 00 	sub    $0xa058,%rsp
    23a3:	49 89 fd             	mov    %rdi,%r13
    23a6:	89 74 24 14          	mov    %esi,0x14(%rsp)
    23aa:	49 89 d7             	mov    %rdx,%r15
    23ad:	48 89 4c 24 08       	mov    %rcx,0x8(%rsp)
    23b2:	4c 89 44 24 18       	mov    %r8,0x18(%rsp)
    23b7:	4d 89 ce             	mov    %r9,%r14
    23ba:	48 8b 9c 24 90 a0 00 	mov    0xa090(%rsp),%rbx
    23c1:	00 
    23c2:	c7 84 24 2c 20 00 00 	movl   $0x0,0x202c(%rsp)
    23c9:	00 00 00 00 
    23cd:	ba 00 00 00 00       	mov    $0x0,%edx
    23d2:	be 01 00 00 00       	mov    $0x1,%esi
    23d7:	bf 02 00 00 00       	mov    $0x2,%edi
    23dc:	e8 9f eb ff ff       	callq  f80 <socket@plt>
    23e1:	85 c0                	test   %eax,%eax
    23e3:	0f 88 ca 01 00 00    	js     25b3 <submitr+0x221>
    23e9:	89 c5                	mov    %eax,%ebp
    23eb:	4c 89 ef             	mov    %r13,%rdi
    23ee:	e8 7d ea ff ff       	callq  e70 <gethostbyname@plt>
    23f3:	48 85 c0             	test   %rax,%rax
    23f6:	0f 84 05 02 00 00    	je     2601 <submitr+0x26f>
    23fc:	4c 8d a4 24 40 a0 00 	lea    0xa040(%rsp),%r12
    2403:	00 
    2404:	48 c7 84 24 40 a0 00 	movq   $0x0,0xa040(%rsp)
    240b:	00 00 00 00 00 
    2410:	48 c7 84 24 48 a0 00 	movq   $0x0,0xa048(%rsp)
    2417:	00 00 00 00 00 
    241c:	66 c7 84 24 40 a0 00 	movw   $0x2,0xa040(%rsp)
    2423:	00 02 00 
    2426:	48 8b 48 18          	mov    0x18(%rax),%rcx
    242a:	48 63 50 14          	movslq 0x14(%rax),%rdx
    242e:	48 8d b4 24 44 a0 00 	lea    0xa044(%rsp),%rsi
    2435:	00 
    2436:	48 8b 39             	mov    (%rcx),%rdi
    2439:	e8 c2 ea ff ff       	callq  f00 <bcopy@plt>
    243e:	0f b7 44 24 14       	movzwl 0x14(%rsp),%eax
    2443:	66 c1 c8 08          	ror    $0x8,%ax
    2447:	66 89 84 24 42 a0 00 	mov    %ax,0xa042(%rsp)
    244e:	00 
    244f:	ba 10 00 00 00       	mov    $0x10,%edx
    2454:	4c 89 e6             	mov    %r12,%rsi
    2457:	89 ef                	mov    %ebp,%edi
    2459:	e8 12 eb ff ff       	callq  f70 <connect@plt>
    245e:	85 c0                	test   %eax,%eax
    2460:	0f 88 02 02 00 00    	js     2668 <submitr+0x2d6>
    2466:	48 c7 c6 ff ff ff ff 	mov    $0xffffffffffffffff,%rsi
    246d:	b8 00 00 00 00       	mov    $0x0,%eax
    2472:	48 89 f1             	mov    %rsi,%rcx
    2475:	4c 89 f7             	mov    %r14,%rdi
    2478:	f2 ae                	repnz scas %es:(%rdi),%al
    247a:	48 f7 d1             	not    %rcx
    247d:	48 89 ca             	mov    %rcx,%rdx
    2480:	48 89 f1             	mov    %rsi,%rcx
    2483:	4c 89 ff             	mov    %r15,%rdi
    2486:	f2 ae                	repnz scas %es:(%rdi),%al
    2488:	48 f7 d1             	not    %rcx
    248b:	49 89 c8             	mov    %rcx,%r8
    248e:	48 89 f1             	mov    %rsi,%rcx
    2491:	48 8b 7c 24 08       	mov    0x8(%rsp),%rdi
    2496:	f2 ae                	repnz scas %es:(%rdi),%al
    2498:	48 f7 d1             	not    %rcx
    249b:	4d 8d 44 08 fe       	lea    -0x2(%r8,%rcx,1),%r8
    24a0:	48 89 f1             	mov    %rsi,%rcx
    24a3:	48 8b 7c 24 18       	mov    0x18(%rsp),%rdi
    24a8:	f2 ae                	repnz scas %es:(%rdi),%al
    24aa:	48 89 c8             	mov    %rcx,%rax
    24ad:	48 f7 d0             	not    %rax
    24b0:	49 8d 4c 00 ff       	lea    -0x1(%r8,%rax,1),%rcx
    24b5:	48 8d 44 52 fd       	lea    -0x3(%rdx,%rdx,2),%rax
    24ba:	48 8d 84 01 80 00 00 	lea    0x80(%rcx,%rax,1),%rax
    24c1:	00 
    24c2:	48 3d 00 20 00 00    	cmp    $0x2000,%rax
    24c8:	0f 87 f3 01 00 00    	ja     26c1 <submitr+0x32f>
    24ce:	48 8d b4 24 30 40 00 	lea    0x4030(%rsp),%rsi
    24d5:	00 
    24d6:	b9 00 04 00 00       	mov    $0x400,%ecx
    24db:	b8 00 00 00 00       	mov    $0x0,%eax
    24e0:	48 89 f7             	mov    %rsi,%rdi
    24e3:	f3 48 ab             	rep stos %rax,%es:(%rdi)
    24e6:	4c 89 f7             	mov    %r14,%rdi
    24e9:	e8 60 fc ff ff       	callq  214e <urlencode>
    24ee:	85 c0                	test   %eax,%eax
    24f0:	0f 88 3d 02 00 00    	js     2733 <submitr+0x3a1>
    24f6:	4c 8d a4 24 30 60 00 	lea    0x6030(%rsp),%r12
    24fd:	00 
    24fe:	4d 89 e9             	mov    %r13,%r9
    2501:	4c 8d 84 24 30 40 00 	lea    0x4030(%rsp),%r8
    2508:	00 
    2509:	4c 89 f9             	mov    %r15,%rcx
    250c:	48 8b 54 24 08       	mov    0x8(%rsp),%rdx
    2511:	48 8d 35 00 10 00 00 	lea    0x1000(%rip),%rsi        # 3518 <trans_char+0x38>
    2518:	4c 89 e7             	mov    %r12,%rdi
    251b:	b8 00 00 00 00       	mov    $0x0,%eax
    2520:	e8 2b ea ff ff       	callq  f50 <sprintf@plt>
    2525:	b8 00 00 00 00       	mov    $0x0,%eax
    252a:	48 c7 c1 ff ff ff ff 	mov    $0xffffffffffffffff,%rcx
    2531:	4c 89 e7             	mov    %r12,%rdi
    2534:	f2 ae                	repnz scas %es:(%rdi),%al
    2536:	48 f7 d1             	not    %rcx
    2539:	48 8d 51 ff          	lea    -0x1(%rcx),%rdx
    253d:	4c 89 e6             	mov    %r12,%rsi
    2540:	89 ef                	mov    %ebp,%edi
    2542:	e8 e3 fc ff ff       	callq  222a <rio_writen>
    2547:	48 85 c0             	test   %rax,%rax
    254a:	0f 88 6d 02 00 00    	js     27bd <submitr+0x42b>
    2550:	4c 8d a4 24 30 80 00 	lea    0x8030(%rsp),%r12
    2557:	00 
    2558:	89 ee                	mov    %ebp,%esi
    255a:	4c 89 e7             	mov    %r12,%rdi
    255d:	e8 af fb ff ff       	callq  2111 <rio_readinitb>
    2562:	48 8d b4 24 30 60 00 	lea    0x6030(%rsp),%rsi
    2569:	00 
    256a:	ba 00 20 00 00       	mov    $0x2000,%edx
    256f:	4c 89 e7             	mov    %r12,%rdi
    2572:	e8 9c fd ff ff       	callq  2313 <rio_readlineb>
    2577:	48 85 c0             	test   %rax,%rax
    257a:	0f 8e ab 02 00 00    	jle    282b <submitr+0x499>
    2580:	48 8d 8c 24 2c 20 00 	lea    0x202c(%rsp),%rcx
    2587:	00 
    2588:	48 8d 94 24 30 20 00 	lea    0x2030(%rsp),%rdx
    258f:	00 
    2590:	48 8d bc 24 30 60 00 	lea    0x6030(%rsp),%rdi
    2597:	00 
    2598:	4c 8d 44 24 20       	lea    0x20(%rsp),%r8
    259d:	48 8d 35 eb 0f 00 00 	lea    0xfeb(%rip),%rsi        # 358f <trans_char+0xaf>
    25a4:	b8 00 00 00 00       	mov    $0x0,%eax
    25a9:	e8 32 e9 ff ff       	callq  ee0 <__isoc99_sscanf@plt>
    25ae:	e9 9f 03 00 00       	jmpq   2952 <submitr+0x5c0>
    25b3:	48 b8 45 72 72 6f 72 	movabs $0x43203a726f727245,%rax
    25ba:	3a 20 43 
    25bd:	48 89 03             	mov    %rax,(%rbx)
    25c0:	48 b8 6c 69 65 6e 74 	movabs $0x6e7520746e65696c,%rax
    25c7:	20 75 6e 
    25ca:	48 89 43 08          	mov    %rax,0x8(%rbx)
    25ce:	48 b8 61 62 6c 65 20 	movabs $0x206f7420656c6261,%rax
    25d5:	74 6f 20 
    25d8:	48 89 43 10          	mov    %rax,0x10(%rbx)
    25dc:	48 b8 63 72 65 61 74 	movabs $0x7320657461657263,%rax
    25e3:	65 20 73 
    25e6:	48 89 43 18          	mov    %rax,0x18(%rbx)
    25ea:	c7 43 20 6f 63 6b 65 	movl   $0x656b636f,0x20(%rbx)
    25f1:	66 c7 43 24 74 00    	movw   $0x74,0x24(%rbx)
    25f7:	b8 ff ff ff ff       	mov    $0xffffffff,%eax
    25fc:	e9 18 03 00 00       	jmpq   2919 <submitr+0x587>
    2601:	48 b8 45 72 72 6f 72 	movabs $0x44203a726f727245,%rax
    2608:	3a 20 44 
    260b:	48 89 03             	mov    %rax,(%rbx)
    260e:	48 b8 4e 53 20 69 73 	movabs $0x6e7520736920534e,%rax
    2615:	20 75 6e 
    2618:	48 89 43 08          	mov    %rax,0x8(%rbx)
    261c:	48 b8 61 62 6c 65 20 	movabs $0x206f7420656c6261,%rax
    2623:	74 6f 20 
    2626:	48 89 43 10          	mov    %rax,0x10(%rbx)
    262a:	48 b8 72 65 73 6f 6c 	movabs $0x2065766c6f736572,%rax
    2631:	76 65 20 
    2634:	48 89 43 18          	mov    %rax,0x18(%rbx)
    2638:	48 b8 73 65 72 76 65 	movabs $0x6120726576726573,%rax
    263f:	72 20 61 
    2642:	48 89 43 20          	mov    %rax,0x20(%rbx)
    2646:	c7 43 28 64 64 72 65 	movl   $0x65726464,0x28(%rbx)
    264d:	66 c7 43 2c 73 73    	movw   $0x7373,0x2c(%rbx)
    2653:	c6 43 2e 00          	movb   $0x0,0x2e(%rbx)
    2657:	89 ef                	mov    %ebp,%edi
    2659:	e8 e2 e7 ff ff       	callq  e40 <close@plt>
    265e:	b8 ff ff ff ff       	mov    $0xffffffff,%eax
    2663:	e9 b1 02 00 00       	jmpq   2919 <submitr+0x587>
    2668:	48 b8 45 72 72 6f 72 	movabs $0x55203a726f727245,%rax
    266f:	3a 20 55 
    2672:	48 89 03             	mov    %rax,(%rbx)
    2675:	48 b8 6e 61 62 6c 65 	movabs $0x6f7420656c62616e,%rax
    267c:	20 74 6f 
    267f:	48 89 43 08          	mov    %rax,0x8(%rbx)
    2683:	48 b8 20 63 6f 6e 6e 	movabs $0x7463656e6e6f6320,%rax
    268a:	65 63 74 
    268d:	48 89 43 10          	mov    %rax,0x10(%rbx)
    2691:	48 b8 20 74 6f 20 74 	movabs $0x20656874206f7420,%rax
    2698:	68 65 20 
    269b:	48 89 43 18          	mov    %rax,0x18(%rbx)
    269f:	c7 43 20 73 65 72 76 	movl   $0x76726573,0x20(%rbx)
    26a6:	66 c7 43 24 65 72    	movw   $0x7265,0x24(%rbx)
    26ac:	c6 43 26 00          	movb   $0x0,0x26(%rbx)
    26b0:	89 ef                	mov    %ebp,%edi
    26b2:	e8 89 e7 ff ff       	callq  e40 <close@plt>
    26b7:	b8 ff ff ff ff       	mov    $0xffffffff,%eax
    26bc:	e9 58 02 00 00       	jmpq   2919 <submitr+0x587>
    26c1:	48 b8 45 72 72 6f 72 	movabs $0x52203a726f727245,%rax
    26c8:	3a 20 52 
    26cb:	48 89 03             	mov    %rax,(%rbx)
    26ce:	48 b8 65 73 75 6c 74 	movabs $0x747320746c757365,%rax
    26d5:	20 73 74 
    26d8:	48 89 43 08          	mov    %rax,0x8(%rbx)
    26dc:	48 b8 72 69 6e 67 20 	movabs $0x6f6f7420676e6972,%rax
    26e3:	74 6f 6f 
    26e6:	48 89 43 10          	mov    %rax,0x10(%rbx)
    26ea:	48 b8 20 6c 61 72 67 	movabs $0x202e656772616c20,%rax
    26f1:	65 2e 20 
    26f4:	48 89 43 18          	mov    %rax,0x18(%rbx)
    26f8:	48 b8 49 6e 63 72 65 	movabs $0x6573616572636e49,%rax
    26ff:	61 73 65 
    2702:	48 89 43 20          	mov    %rax,0x20(%rbx)
    2706:	48 b8 20 53 55 42 4d 	movabs $0x5254494d42555320,%rax
    270d:	49 54 52 
    2710:	48 89 43 28          	mov    %rax,0x28(%rbx)
    2714:	48 b8 5f 4d 41 58 42 	movabs $0x46554258414d5f,%rax
    271b:	55 46 00 
    271e:	48 89 43 30          	mov    %rax,0x30(%rbx)
    2722:	89 ef                	mov    %ebp,%edi
    2724:	e8 17 e7 ff ff       	callq  e40 <close@plt>
    2729:	b8 ff ff ff ff       	mov    $0xffffffff,%eax
    272e:	e9 e6 01 00 00       	jmpq   2919 <submitr+0x587>
    2733:	48 b8 45 72 72 6f 72 	movabs $0x52203a726f727245,%rax
    273a:	3a 20 52 
    273d:	48 89 03             	mov    %rax,(%rbx)
    2740:	48 b8 65 73 75 6c 74 	movabs $0x747320746c757365,%rax
    2747:	20 73 74 
    274a:	48 89 43 08          	mov    %rax,0x8(%rbx)
    274e:	48 b8 72 69 6e 67 20 	movabs $0x6e6f6320676e6972,%rax
    2755:	63 6f 6e 
    2758:	48 89 43 10          	mov    %rax,0x10(%rbx)
    275c:	48 b8 74 61 69 6e 73 	movabs $0x6e6120736e696174,%rax
    2763:	20 61 6e 
    2766:	48 89 43 18          	mov    %rax,0x18(%rbx)
    276a:	48 b8 20 69 6c 6c 65 	movabs $0x6c6167656c6c6920,%rax
    2771:	67 61 6c 
    2774:	48 89 43 20          	mov    %rax,0x20(%rbx)
    2778:	48 b8 20 6f 72 20 75 	movabs $0x72706e7520726f20,%rax
    277f:	6e 70 72 
    2782:	48 89 43 28          	mov    %rax,0x28(%rbx)
    2786:	48 b8 69 6e 74 61 62 	movabs $0x20656c6261746e69,%rax
    278d:	6c 65 20 
    2790:	48 89 43 30          	mov    %rax,0x30(%rbx)
    2794:	48 b8 63 68 61 72 61 	movabs $0x6574636172616863,%rax
    279b:	63 74 65 
    279e:	48 89 43 38          	mov    %rax,0x38(%rbx)
    27a2:	66 c7 43 40 72 2e    	movw   $0x2e72,0x40(%rbx)
    27a8:	c6 43 42 00          	movb   $0x0,0x42(%rbx)
    27ac:	89 ef                	mov    %ebp,%edi
    27ae:	e8 8d e6 ff ff       	callq  e40 <close@plt>
    27b3:	b8 ff ff ff ff       	mov    $0xffffffff,%eax
    27b8:	e9 5c 01 00 00       	jmpq   2919 <submitr+0x587>
    27bd:	48 b8 45 72 72 6f 72 	movabs $0x43203a726f727245,%rax
    27c4:	3a 20 43 
    27c7:	48 89 03             	mov    %rax,(%rbx)
    27ca:	48 b8 6c 69 65 6e 74 	movabs $0x6e7520746e65696c,%rax
    27d1:	20 75 6e 
    27d4:	48 89 43 08          	mov    %rax,0x8(%rbx)
    27d8:	48 b8 61 62 6c 65 20 	movabs $0x206f7420656c6261,%rax
    27df:	74 6f 20 
    27e2:	48 89 43 10          	mov    %rax,0x10(%rbx)
    27e6:	48 b8 77 72 69 74 65 	movabs $0x6f74206574697277,%rax
    27ed:	20 74 6f 
    27f0:	48 89 43 18          	mov    %rax,0x18(%rbx)
    27f4:	48 b8 20 74 68 65 20 	movabs $0x7365722065687420,%rax
    27fb:	72 65 73 
    27fe:	48 89 43 20          	mov    %rax,0x20(%rbx)
    2802:	48 b8 75 6c 74 20 73 	movabs $0x7672657320746c75,%rax
    2809:	65 72 76 
    280c:	48 89 43 28          	mov    %rax,0x28(%rbx)
    2810:	66 c7 43 30 65 72    	movw   $0x7265,0x30(%rbx)
    2816:	c6 43 32 00          	movb   $0x0,0x32(%rbx)
    281a:	89 ef                	mov    %ebp,%edi
    281c:	e8 1f e6 ff ff       	callq  e40 <close@plt>
    2821:	b8 ff ff ff ff       	mov    $0xffffffff,%eax
    2826:	e9 ee 00 00 00       	jmpq   2919 <submitr+0x587>
    282b:	48 b8 45 72 72 6f 72 	movabs $0x43203a726f727245,%rax
    2832:	3a 20 43 
    2835:	48 89 03             	mov    %rax,(%rbx)
    2838:	48 b8 6c 69 65 6e 74 	movabs $0x6e7520746e65696c,%rax
    283f:	20 75 6e 
    2842:	48 89 43 08          	mov    %rax,0x8(%rbx)
    2846:	48 b8 61 62 6c 65 20 	movabs $0x206f7420656c6261,%rax
    284d:	74 6f 20 
    2850:	48 89 43 10          	mov    %rax,0x10(%rbx)
    2854:	48 b8 72 65 61 64 20 	movabs $0x7269662064616572,%rax
    285b:	66 69 72 
    285e:	48 89 43 18          	mov    %rax,0x18(%rbx)
    2862:	48 b8 73 74 20 68 65 	movabs $0x6564616568207473,%rax
    2869:	61 64 65 
    286c:	48 89 43 20          	mov    %rax,0x20(%rbx)
    2870:	48 b8 72 20 66 72 6f 	movabs $0x72206d6f72662072,%rax
    2877:	6d 20 72 
    287a:	48 89 43 28          	mov    %rax,0x28(%rbx)
    287e:	48 b8 65 73 75 6c 74 	movabs $0x657320746c757365,%rax
    2885:	20 73 65 
    2888:	48 89 43 30          	mov    %rax,0x30(%rbx)
    288c:	c7 43 38 72 76 65 72 	movl   $0x72657672,0x38(%rbx)
    2893:	c6 43 3c 00          	movb   $0x0,0x3c(%rbx)
    2897:	89 ef                	mov    %ebp,%edi
    2899:	e8 a2 e5 ff ff       	callq  e40 <close@plt>
    289e:	b8 ff ff ff ff       	mov    $0xffffffff,%eax
    28a3:	eb 74                	jmp    2919 <submitr+0x587>
    28a5:	48 b8 45 72 72 6f 72 	movabs $0x43203a726f727245,%rax
    28ac:	3a 20 43 
    28af:	48 89 03             	mov    %rax,(%rbx)
    28b2:	48 b8 6c 69 65 6e 74 	movabs $0x6e7520746e65696c,%rax
    28b9:	20 75 6e 
    28bc:	48 89 43 08          	mov    %rax,0x8(%rbx)
    28c0:	48 b8 61 62 6c 65 20 	movabs $0x206f7420656c6261,%rax
    28c7:	74 6f 20 
    28ca:	48 89 43 10          	mov    %rax,0x10(%rbx)
    28ce:	48 b8 72 65 61 64 20 	movabs $0x6165682064616572,%rax
    28d5:	68 65 61 
    28d8:	48 89 43 18          	mov    %rax,0x18(%rbx)
    28dc:	48 b8 64 65 72 73 20 	movabs $0x6f72662073726564,%rax
    28e3:	66 72 6f 
    28e6:	48 89 43 20          	mov    %rax,0x20(%rbx)
    28ea:	48 b8 6d 20 74 68 65 	movabs $0x657220656874206d,%rax
    28f1:	20 72 65 
    28f4:	48 89 43 28          	mov    %rax,0x28(%rbx)
    28f8:	48 b8 73 75 6c 74 20 	movabs $0x72657320746c7573,%rax
    28ff:	73 65 72 
    2902:	48 89 43 30          	mov    %rax,0x30(%rbx)
    2906:	c7 43 38 76 65 72 00 	movl   $0x726576,0x38(%rbx)
    290d:	89 ef                	mov    %ebp,%edi
    290f:	e8 2c e5 ff ff       	callq  e40 <close@plt>
    2914:	b8 ff ff ff ff       	mov    $0xffffffff,%eax
    2919:	48 81 c4 58 a0 00 00 	add    $0xa058,%rsp
    2920:	5b                   	pop    %rbx
    2921:	5d                   	pop    %rbp
    2922:	41 5c                	pop    %r12
    2924:	41 5d                	pop    %r13
    2926:	41 5e                	pop    %r14
    2928:	41 5f                	pop    %r15
    292a:	c3                   	retq   
    292b:	85 c0                	test   %eax,%eax
    292d:	74 51                	je     2980 <submitr+0x5ee>
    292f:	48 8d b4 24 30 60 00 	lea    0x6030(%rsp),%rsi
    2936:	00 
    2937:	48 8d bc 24 30 80 00 	lea    0x8030(%rsp),%rdi
    293e:	00 
    293f:	ba 00 20 00 00       	mov    $0x2000,%edx
    2944:	e8 ca f9 ff ff       	callq  2313 <rio_readlineb>
    2949:	48 85 c0             	test   %rax,%rax
    294c:	0f 8e 53 ff ff ff    	jle    28a5 <submitr+0x513>
    2952:	0f b6 94 24 30 60 00 	movzbl 0x6030(%rsp),%edx
    2959:	00 
    295a:	b8 0d 00 00 00       	mov    $0xd,%eax
    295f:	29 d0                	sub    %edx,%eax
    2961:	75 c8                	jne    292b <submitr+0x599>
    2963:	0f b6 94 24 31 60 00 	movzbl 0x6031(%rsp),%edx
    296a:	00 
    296b:	b8 0a 00 00 00       	mov    $0xa,%eax
    2970:	29 d0                	sub    %edx,%eax
    2972:	75 b7                	jne    292b <submitr+0x599>
    2974:	0f b6 84 24 32 60 00 	movzbl 0x6032(%rsp),%eax
    297b:	00 
    297c:	f7 d8                	neg    %eax
    297e:	eb ab                	jmp    292b <submitr+0x599>
    2980:	48 8d b4 24 30 60 00 	lea    0x6030(%rsp),%rsi
    2987:	00 
    2988:	48 8d bc 24 30 80 00 	lea    0x8030(%rsp),%rdi
    298f:	00 
    2990:	ba 00 20 00 00       	mov    $0x2000,%edx
    2995:	e8 79 f9 ff ff       	callq  2313 <rio_readlineb>
    299a:	48 85 c0             	test   %rax,%rax
    299d:	7e 67                	jle    2a06 <submitr+0x674>
    299f:	8b 94 24 2c 20 00 00 	mov    0x202c(%rsp),%edx
    29a6:	81 fa c8 00 00 00    	cmp    $0xc8,%edx
    29ac:	0f 85 d7 00 00 00    	jne    2a89 <submitr+0x6f7>
    29b2:	48 8d b4 24 30 60 00 	lea    0x6030(%rsp),%rsi
    29b9:	00 
    29ba:	48 89 df             	mov    %rbx,%rdi
    29bd:	e8 0e e4 ff ff       	callq  dd0 <strcpy@plt>
    29c2:	89 ef                	mov    %ebp,%edi
    29c4:	e8 77 e4 ff ff       	callq  e40 <close@plt>
    29c9:	0f b6 03             	movzbl (%rbx),%eax
    29cc:	ba 4f 00 00 00       	mov    $0x4f,%edx
    29d1:	29 c2                	sub    %eax,%edx
    29d3:	0f 85 da 00 00 00    	jne    2ab3 <submitr+0x721>
    29d9:	0f b6 4b 01          	movzbl 0x1(%rbx),%ecx
    29dd:	b8 4b 00 00 00       	mov    $0x4b,%eax
    29e2:	29 c8                	sub    %ecx,%eax
    29e4:	0f 85 cb 00 00 00    	jne    2ab5 <submitr+0x723>
    29ea:	0f b6 4b 02          	movzbl 0x2(%rbx),%ecx
    29ee:	b8 0a 00 00 00       	mov    $0xa,%eax
    29f3:	29 c8                	sub    %ecx,%eax
    29f5:	0f 85 ba 00 00 00    	jne    2ab5 <submitr+0x723>
    29fb:	0f b6 43 03          	movzbl 0x3(%rbx),%eax
    29ff:	f7 d8                	neg    %eax
    2a01:	e9 af 00 00 00       	jmpq   2ab5 <submitr+0x723>
    2a06:	48 b8 45 72 72 6f 72 	movabs $0x43203a726f727245,%rax
    2a0d:	3a 20 43 
    2a10:	48 89 03             	mov    %rax,(%rbx)
    2a13:	48 b8 6c 69 65 6e 74 	movabs $0x6e7520746e65696c,%rax
    2a1a:	20 75 6e 
    2a1d:	48 89 43 08          	mov    %rax,0x8(%rbx)
    2a21:	48 b8 61 62 6c 65 20 	movabs $0x206f7420656c6261,%rax
    2a28:	74 6f 20 
    2a2b:	48 89 43 10          	mov    %rax,0x10(%rbx)
    2a2f:	48 b8 72 65 61 64 20 	movabs $0x6174732064616572,%rax
    2a36:	73 74 61 
    2a39:	48 89 43 18          	mov    %rax,0x18(%rbx)
    2a3d:	48 b8 74 75 73 20 6d 	movabs $0x7373656d20737574,%rax
    2a44:	65 73 73 
    2a47:	48 89 43 20          	mov    %rax,0x20(%rbx)
    2a4b:	48 b8 61 67 65 20 66 	movabs $0x6d6f726620656761,%rax
    2a52:	72 6f 6d 
    2a55:	48 89 43 28          	mov    %rax,0x28(%rbx)
    2a59:	48 b8 20 72 65 73 75 	movabs $0x20746c7573657220,%rax
    2a60:	6c 74 20 
    2a63:	48 89 43 30          	mov    %rax,0x30(%rbx)
    2a67:	c7 43 38 73 65 72 76 	movl   $0x76726573,0x38(%rbx)
    2a6e:	66 c7 43 3c 65 72    	movw   $0x7265,0x3c(%rbx)
    2a74:	c6 43 3e 00          	movb   $0x0,0x3e(%rbx)
    2a78:	89 ef                	mov    %ebp,%edi
    2a7a:	e8 c1 e3 ff ff       	callq  e40 <close@plt>
    2a7f:	b8 ff ff ff ff       	mov    $0xffffffff,%eax
    2a84:	e9 90 fe ff ff       	jmpq   2919 <submitr+0x587>
    2a89:	48 8d 4c 24 20       	lea    0x20(%rsp),%rcx
    2a8e:	48 8d 35 c3 0a 00 00 	lea    0xac3(%rip),%rsi        # 3558 <trans_char+0x78>
    2a95:	48 89 df             	mov    %rbx,%rdi
    2a98:	b8 00 00 00 00       	mov    $0x0,%eax
    2a9d:	e8 ae e4 ff ff       	callq  f50 <sprintf@plt>
    2aa2:	89 ef                	mov    %ebp,%edi
    2aa4:	e8 97 e3 ff ff       	callq  e40 <close@plt>
    2aa9:	b8 ff ff ff ff       	mov    $0xffffffff,%eax
    2aae:	e9 66 fe ff ff       	jmpq   2919 <submitr+0x587>
    2ab3:	89 d0                	mov    %edx,%eax
    2ab5:	f7 d8                	neg    %eax
    2ab7:	0f 84 5c fe ff ff    	je     2919 <submitr+0x587>
    2abd:	b9 05 00 00 00       	mov    $0x5,%ecx
    2ac2:	48 8d 3d d7 0a 00 00 	lea    0xad7(%rip),%rdi        # 35a0 <trans_char+0xc0>
    2ac9:	48 89 de             	mov    %rbx,%rsi
    2acc:	f3 a6                	repz cmpsb %es:(%rdi),%ds:(%rsi)
    2ace:	0f 97 c0             	seta   %al
    2ad1:	0f 92 c1             	setb   %cl
    2ad4:	29 c8                	sub    %ecx,%eax
    2ad6:	0f be c0             	movsbl %al,%eax
    2ad9:	85 c0                	test   %eax,%eax
    2adb:	0f 84 38 fe ff ff    	je     2919 <submitr+0x587>
    2ae1:	85 d2                	test   %edx,%edx
    2ae3:	75 13                	jne    2af8 <submitr+0x766>
    2ae5:	0f b6 43 01          	movzbl 0x1(%rbx),%eax
    2ae9:	ba 4b 00 00 00       	mov    $0x4b,%edx
    2aee:	29 c2                	sub    %eax,%edx
    2af0:	75 06                	jne    2af8 <submitr+0x766>
    2af2:	0f b6 53 02          	movzbl 0x2(%rbx),%edx
    2af6:	f7 da                	neg    %edx
    2af8:	89 d0                	mov    %edx,%eax
    2afa:	f7 d8                	neg    %eax
    2afc:	0f 84 17 fe ff ff    	je     2919 <submitr+0x587>
    2b02:	b8 ff ff ff ff       	mov    $0xffffffff,%eax
    2b07:	e9 0d fe ff ff       	jmpq   2919 <submitr+0x587>

0000000000002b0c <init_timeout>:
    2b0c:	85 ff                	test   %edi,%edi
    2b0e:	74 20                	je     2b30 <init_timeout+0x24>
    2b10:	53                   	push   %rbx
    2b11:	89 fb                	mov    %edi,%ebx
    2b13:	85 ff                	test   %edi,%edi
    2b15:	78 1b                	js     2b32 <init_timeout+0x26>
    2b17:	48 8d 35 05 f6 ff ff 	lea    -0x9fb(%rip),%rsi        # 2123 <sigalrm_handler>
    2b1e:	bf 0e 00 00 00       	mov    $0xe,%edi
    2b23:	e8 38 e3 ff ff       	callq  e60 <signal@plt>
    2b28:	89 df                	mov    %ebx,%edi
    2b2a:	e8 01 e3 ff ff       	callq  e30 <alarm@plt>
    2b2f:	5b                   	pop    %rbx
    2b30:	f3 c3                	repz retq 
    2b32:	bb 00 00 00 00       	mov    $0x0,%ebx
    2b37:	eb de                	jmp    2b17 <init_timeout+0xb>

0000000000002b39 <init_driver>:
    2b39:	41 54                	push   %r12
    2b3b:	55                   	push   %rbp
    2b3c:	53                   	push   %rbx
    2b3d:	48 83 ec 10          	sub    $0x10,%rsp
    2b41:	48 89 fd             	mov    %rdi,%rbp
    2b44:	be 01 00 00 00       	mov    $0x1,%esi
    2b49:	bf 0d 00 00 00       	mov    $0xd,%edi
    2b4e:	e8 0d e3 ff ff       	callq  e60 <signal@plt>
    2b53:	be 01 00 00 00       	mov    $0x1,%esi
    2b58:	bf 1d 00 00 00       	mov    $0x1d,%edi
    2b5d:	e8 fe e2 ff ff       	callq  e60 <signal@plt>
    2b62:	be 01 00 00 00       	mov    $0x1,%esi
    2b67:	bf 1d 00 00 00       	mov    $0x1d,%edi
    2b6c:	e8 ef e2 ff ff       	callq  e60 <signal@plt>
    2b71:	ba 00 00 00 00       	mov    $0x0,%edx
    2b76:	be 01 00 00 00       	mov    $0x1,%esi
    2b7b:	bf 02 00 00 00       	mov    $0x2,%edi
    2b80:	e8 fb e3 ff ff       	callq  f80 <socket@plt>
    2b85:	85 c0                	test   %eax,%eax
    2b87:	0f 88 80 00 00 00    	js     2c0d <init_driver+0xd4>
    2b8d:	89 c3                	mov    %eax,%ebx
    2b8f:	48 8d 3d 0f 0a 00 00 	lea    0xa0f(%rip),%rdi        # 35a5 <trans_char+0xc5>
    2b96:	e8 d5 e2 ff ff       	callq  e70 <gethostbyname@plt>
    2b9b:	48 85 c0             	test   %rax,%rax
    2b9e:	0f 84 b5 00 00 00    	je     2c59 <init_driver+0x120>
    2ba4:	48 c7 04 24 00 00 00 	movq   $0x0,(%rsp)
    2bab:	00 
    2bac:	48 c7 44 24 08 00 00 	movq   $0x0,0x8(%rsp)
    2bb3:	00 00 
    2bb5:	66 c7 04 24 02 00    	movw   $0x2,(%rsp)
    2bbb:	48 8b 48 18          	mov    0x18(%rax),%rcx
    2bbf:	48 63 50 14          	movslq 0x14(%rax),%rdx
    2bc3:	48 8d 74 24 04       	lea    0x4(%rsp),%rsi
    2bc8:	48 8b 39             	mov    (%rcx),%rdi
    2bcb:	e8 30 e3 ff ff       	callq  f00 <bcopy@plt>
    2bd0:	66 c7 44 24 02 3c 9a 	movw   $0x9a3c,0x2(%rsp)
    2bd7:	ba 10 00 00 00       	mov    $0x10,%edx
    2bdc:	48 89 e6             	mov    %rsp,%rsi
    2bdf:	89 df                	mov    %ebx,%edi
    2be1:	e8 8a e3 ff ff       	callq  f70 <connect@plt>
    2be6:	85 c0                	test   %eax,%eax
    2be8:	0f 88 d3 00 00 00    	js     2cc1 <init_driver+0x188>
    2bee:	89 df                	mov    %ebx,%edi
    2bf0:	e8 4b e2 ff ff       	callq  e40 <close@plt>
    2bf5:	66 c7 45 00 4f 4b    	movw   $0x4b4f,0x0(%rbp)
    2bfb:	c6 45 02 00          	movb   $0x0,0x2(%rbp)
    2bff:	b8 00 00 00 00       	mov    $0x0,%eax
    2c04:	48 83 c4 10          	add    $0x10,%rsp
    2c08:	5b                   	pop    %rbx
    2c09:	5d                   	pop    %rbp
    2c0a:	41 5c                	pop    %r12
    2c0c:	c3                   	retq   
    2c0d:	48 b8 45 72 72 6f 72 	movabs $0x43203a726f727245,%rax
    2c14:	3a 20 43 
    2c17:	48 89 45 00          	mov    %rax,0x0(%rbp)
    2c1b:	48 b8 6c 69 65 6e 74 	movabs $0x6e7520746e65696c,%rax
    2c22:	20 75 6e 
    2c25:	48 89 45 08          	mov    %rax,0x8(%rbp)
    2c29:	48 b8 61 62 6c 65 20 	movabs $0x206f7420656c6261,%rax
    2c30:	74 6f 20 
    2c33:	48 89 45 10          	mov    %rax,0x10(%rbp)
    2c37:	48 b8 63 72 65 61 74 	movabs $0x7320657461657263,%rax
    2c3e:	65 20 73 
    2c41:	48 89 45 18          	mov    %rax,0x18(%rbp)
    2c45:	c7 45 20 6f 63 6b 65 	movl   $0x656b636f,0x20(%rbp)
    2c4c:	66 c7 45 24 74 00    	movw   $0x74,0x24(%rbp)
    2c52:	b8 ff ff ff ff       	mov    $0xffffffff,%eax
    2c57:	eb ab                	jmp    2c04 <init_driver+0xcb>
    2c59:	48 b8 45 72 72 6f 72 	movabs $0x44203a726f727245,%rax
    2c60:	3a 20 44 
    2c63:	48 89 45 00          	mov    %rax,0x0(%rbp)
    2c67:	48 b8 4e 53 20 69 73 	movabs $0x6e7520736920534e,%rax
    2c6e:	20 75 6e 
    2c71:	48 89 45 08          	mov    %rax,0x8(%rbp)
    2c75:	48 b8 61 62 6c 65 20 	movabs $0x206f7420656c6261,%rax
    2c7c:	74 6f 20 
    2c7f:	48 89 45 10          	mov    %rax,0x10(%rbp)
    2c83:	48 b8 72 65 73 6f 6c 	movabs $0x2065766c6f736572,%rax
    2c8a:	76 65 20 
    2c8d:	48 89 45 18          	mov    %rax,0x18(%rbp)
    2c91:	48 b8 73 65 72 76 65 	movabs $0x6120726576726573,%rax
    2c98:	72 20 61 
    2c9b:	48 89 45 20          	mov    %rax,0x20(%rbp)
    2c9f:	c7 45 28 64 64 72 65 	movl   $0x65726464,0x28(%rbp)
    2ca6:	66 c7 45 2c 73 73    	movw   $0x7373,0x2c(%rbp)
    2cac:	c6 45 2e 00          	movb   $0x0,0x2e(%rbp)
    2cb0:	89 df                	mov    %ebx,%edi
    2cb2:	e8 89 e1 ff ff       	callq  e40 <close@plt>
    2cb7:	b8 ff ff ff ff       	mov    $0xffffffff,%eax
    2cbc:	e9 43 ff ff ff       	jmpq   2c04 <init_driver+0xcb>
    2cc1:	48 b8 45 72 72 6f 72 	movabs $0x55203a726f727245,%rax
    2cc8:	3a 20 55 
    2ccb:	48 89 45 00          	mov    %rax,0x0(%rbp)
    2ccf:	48 b8 6e 61 62 6c 65 	movabs $0x6f7420656c62616e,%rax
    2cd6:	20 74 6f 
    2cd9:	48 89 45 08          	mov    %rax,0x8(%rbp)
    2cdd:	48 b8 20 63 6f 6e 6e 	movabs $0x7463656e6e6f6320,%rax
    2ce4:	65 63 74 
    2ce7:	48 89 45 10          	mov    %rax,0x10(%rbp)
    2ceb:	48 b8 20 74 6f 20 73 	movabs $0x76726573206f7420,%rax
    2cf2:	65 72 76 
    2cf5:	48 89 45 18          	mov    %rax,0x18(%rbp)
    2cf9:	66 c7 45 20 65 72    	movw   $0x7265,0x20(%rbp)
    2cff:	c6 45 22 00          	movb   $0x0,0x22(%rbp)
    2d03:	89 df                	mov    %ebx,%edi
    2d05:	e8 36 e1 ff ff       	callq  e40 <close@plt>
    2d0a:	b8 ff ff ff ff       	mov    $0xffffffff,%eax
    2d0f:	e9 f0 fe ff ff       	jmpq   2c04 <init_driver+0xcb>

0000000000002d14 <driver_post>:
    2d14:	53                   	push   %rbx
    2d15:	4c 89 cb             	mov    %r9,%rbx
    2d18:	45 85 c0             	test   %r8d,%r8d
    2d1b:	75 18                	jne    2d35 <driver_post+0x21>
    2d1d:	48 85 ff             	test   %rdi,%rdi
    2d20:	74 05                	je     2d27 <driver_post+0x13>
    2d22:	80 3f 00             	cmpb   $0x0,(%rdi)
    2d25:	75 32                	jne    2d59 <driver_post+0x45>
    2d27:	66 c7 03 4f 4b       	movw   $0x4b4f,(%rbx)
    2d2c:	c6 43 02 00          	movb   $0x0,0x2(%rbx)
    2d30:	44 89 c0             	mov    %r8d,%eax
    2d33:	5b                   	pop    %rbx
    2d34:	c3                   	retq   
    2d35:	48 89 ce             	mov    %rcx,%rsi
    2d38:	48 8d 3d 74 08 00 00 	lea    0x874(%rip),%rdi        # 35b3 <trans_char+0xd3>
    2d3f:	b8 00 00 00 00       	mov    $0x0,%eax
    2d44:	e8 c7 e0 ff ff       	callq  e10 <printf@plt>
    2d49:	66 c7 03 4f 4b       	movw   $0x4b4f,(%rbx)
    2d4e:	c6 43 02 00          	movb   $0x0,0x2(%rbx)
    2d52:	b8 00 00 00 00       	mov    $0x0,%eax
    2d57:	eb da                	jmp    2d33 <driver_post+0x1f>
    2d59:	48 83 ec 08          	sub    $0x8,%rsp
    2d5d:	41 51                	push   %r9
    2d5f:	49 89 c9             	mov    %rcx,%r9
    2d62:	49 89 d0             	mov    %rdx,%r8
    2d65:	48 89 f9             	mov    %rdi,%rcx
    2d68:	48 89 f2             	mov    %rsi,%rdx
    2d6b:	be 9a 3c 00 00       	mov    $0x3c9a,%esi
    2d70:	48 8d 3d 2e 08 00 00 	lea    0x82e(%rip),%rdi        # 35a5 <trans_char+0xc5>
    2d77:	e8 16 f6 ff ff       	callq  2392 <submitr>
    2d7c:	48 83 c4 10          	add    $0x10,%rsp
    2d80:	eb b1                	jmp    2d33 <driver_post+0x1f>

0000000000002d82 <check>:
    2d82:	89 f8                	mov    %edi,%eax
    2d84:	c1 e8 1c             	shr    $0x1c,%eax
    2d87:	85 c0                	test   %eax,%eax
    2d89:	74 1d                	je     2da8 <check+0x26>
    2d8b:	b9 00 00 00 00       	mov    $0x0,%ecx
    2d90:	83 f9 1f             	cmp    $0x1f,%ecx
    2d93:	7f 0d                	jg     2da2 <check+0x20>
    2d95:	89 f8                	mov    %edi,%eax
    2d97:	d3 e8                	shr    %cl,%eax
    2d99:	3c 0a                	cmp    $0xa,%al
    2d9b:	74 11                	je     2dae <check+0x2c>
    2d9d:	83 c1 08             	add    $0x8,%ecx
    2da0:	eb ee                	jmp    2d90 <check+0xe>
    2da2:	b8 01 00 00 00       	mov    $0x1,%eax
    2da7:	c3                   	retq   
    2da8:	b8 00 00 00 00       	mov    $0x0,%eax
    2dad:	c3                   	retq   
    2dae:	b8 00 00 00 00       	mov    $0x0,%eax
    2db3:	c3                   	retq   

0000000000002db4 <gencookie>:
    2db4:	53                   	push   %rbx
    2db5:	83 c7 01             	add    $0x1,%edi
    2db8:	e8 f3 df ff ff       	callq  db0 <srandom@plt>
    2dbd:	e8 fe e0 ff ff       	callq  ec0 <random@plt>
    2dc2:	89 c3                	mov    %eax,%ebx
    2dc4:	89 c7                	mov    %eax,%edi
    2dc6:	e8 b7 ff ff ff       	callq  2d82 <check>
    2dcb:	85 c0                	test   %eax,%eax
    2dcd:	74 ee                	je     2dbd <gencookie+0x9>
    2dcf:	89 d8                	mov    %ebx,%eax
    2dd1:	5b                   	pop    %rbx
    2dd2:	c3                   	retq   
    2dd3:	66 2e 0f 1f 84 00 00 	nopw   %cs:0x0(%rax,%rax,1)
    2dda:	00 00 00 
    2ddd:	0f 1f 00             	nopl   (%rax)

0000000000002de0 <__libc_csu_init>:
    2de0:	41 57                	push   %r15
    2de2:	41 56                	push   %r14
    2de4:	41 89 ff             	mov    %edi,%r15d
    2de7:	41 55                	push   %r13
    2de9:	41 54                	push   %r12
    2deb:	4c 8d 25 e6 0f 20 00 	lea    0x200fe6(%rip),%r12        # 203dd8 <__frame_dummy_init_array_entry>
    2df2:	55                   	push   %rbp
    2df3:	48 8d 2d e6 0f 20 00 	lea    0x200fe6(%rip),%rbp        # 203de0 <__init_array_end>
    2dfa:	53                   	push   %rbx
    2dfb:	49 89 f6             	mov    %rsi,%r14
    2dfe:	49 89 d5             	mov    %rdx,%r13
    2e01:	4c 29 e5             	sub    %r12,%rbp
    2e04:	48 83 ec 08          	sub    $0x8,%rsp
    2e08:	48 c1 fd 03          	sar    $0x3,%rbp
    2e0c:	e8 4f df ff ff       	callq  d60 <_init>
    2e11:	48 85 ed             	test   %rbp,%rbp
    2e14:	74 20                	je     2e36 <__libc_csu_init+0x56>
    2e16:	31 db                	xor    %ebx,%ebx
    2e18:	0f 1f 84 00 00 00 00 	nopl   0x0(%rax,%rax,1)
    2e1f:	00 
    2e20:	4c 89 ea             	mov    %r13,%rdx
    2e23:	4c 89 f6             	mov    %r14,%rsi
    2e26:	44 89 ff             	mov    %r15d,%edi
    2e29:	41 ff 14 dc          	callq  *(%r12,%rbx,8)
    2e2d:	48 83 c3 01          	add    $0x1,%rbx
    2e31:	48 39 dd             	cmp    %rbx,%rbp
    2e34:	75 ea                	jne    2e20 <__libc_csu_init+0x40>
    2e36:	48 83 c4 08          	add    $0x8,%rsp
    2e3a:	5b                   	pop    %rbx
    2e3b:	5d                   	pop    %rbp
    2e3c:	41 5c                	pop    %r12
    2e3e:	41 5d                	pop    %r13
    2e40:	41 5e                	pop    %r14
    2e42:	41 5f                	pop    %r15
    2e44:	c3                   	retq   
    2e45:	90                   	nop
    2e46:	66 2e 0f 1f 84 00 00 	nopw   %cs:0x0(%rax,%rax,1)
    2e4d:	00 00 00 

0000000000002e50 <__libc_csu_fini>:
    2e50:	f3 c3                	repz retq 

Disassembly of section .fini:

0000000000002e54 <_fini>:
    2e54:	48 83 ec 08          	sub    $0x8,%rsp
    2e58:	48 83 c4 08          	add    $0x8,%rsp
    2e5c:	c3                   	retq   
