	.file	"float.c"
	.text
	.globl	multself
	.type	multself, @function
multself:
.LFB0:
	.cfi_startproc
	pushq	%rbp
	.cfi_def_cfa_offset 16
	.cfi_offset 6, -16
	movq	%rsp, %rbp
	.cfi_def_cfa_register 6
	movsd	%xmm0, -24(%rbp)
	movsd	-24(%rbp), %xmm0
	mulsd	-24(%rbp), %xmm0
	movsd	%xmm0, -8(%rbp)
	movsd	-24(%rbp), %xmm0
	ucomisd	.LC0(%rip), %xmm0
	jbe	.L6
	movsd	-8(%rbp), %xmm0
	jmp	.L4
.L6:
	movsd	.LC0(%rip), %xmm0
.L4:
	popq	%rbp
	.cfi_def_cfa 7, 8
	ret
	.cfi_endproc
.LFE0:
	.size	multself, .-multself
	.section	.rodata
.LC2:
	.string	"%f\n"
	.text
	.globl	main
	.type	main, @function
main:
.LFB1:
	.cfi_startproc
	pushq	%rbp
	.cfi_def_cfa_offset 16
	.cfi_offset 6, -16
	movq	%rsp, %rbp
	.cfi_def_cfa_register 6
	subq	$32, %rsp
	movsd	.LC1(%rip), %xmm0
	movsd	%xmm0, -16(%rbp)
	movq	-16(%rbp), %rax
	movq	%rax, -24(%rbp)
	movsd	-24(%rbp), %xmm0
	call	multself
	movq	%xmm0, %rax
	movq	%rax, -8(%rbp)
	movq	-8(%rbp), %rax
	movq	%rax, -24(%rbp)
	movsd	-24(%rbp), %xmm0
	leaq	.LC2(%rip), %rdi
	movl	$1, %eax
	call	printf@PLT
	movl	$0, %eax
	leave
	.cfi_def_cfa 7, 8
	ret
	.cfi_endproc
.LFE1:
	.size	main, .-main
	.section	.rodata
	.align 8
.LC0:
	.long	0
	.long	1073217536
	.align 8
.LC1:
	.long	2557519022
	.long	1072916931
	.ident	"GCC: (Ubuntu 7.4.0-1ubuntu1~18.04.1) 7.4.0"
	.section	.note.GNU-stack,"",@progbits
